(dp0
S'Vitamins'
p1
(lp2
S'https://www.amazon.com/gp/help/customer/display.html/ref=footer_cou?ie=UTF8&amp;nodeId=508088'
p3
asS'Improvement'
p4
(lp5
g3
asS'Dining'
p6
(lp7
g3
asS'/movies'
p8
(lp9
g3
asS'/climbing/b'
p10
(lp11
g3
asS'Thrive'
p12
(lp13
S'https://www.amazon.com/dogsofamazon'
p14
asS'Prime/b'
p15
(lp16
g3
asS'replacements'
p17
(lp18
g3
asS'eligible'
p19
(lp20
g3
asS'/Occupational'
p21
(lp22
g3
asS'1064954'
p23
(lp24
g3
asS'Watch'
p25
(lp26
g14
ag3
asS'Apache'
p27
(lp28
g14
asS'Climbing'
p29
(lp30
g3
asS'Cases'
p31
(lp32
g3
asS'000+'
p33
(lp34
g14
asS'Rose/b'
p35
(lp36
g3
asS'bluray/b'
p37
(lp38
g3
asS'11051398011'
p39
(lp40
g3
asS'Grocery'
p41
(lp42
g3
asS'201602060'
p43
(lp44
g3
asS'every'
p45
(lp46
g3
asS'GB'
p47
(lp48
g3
asS'Military'
p49
(lp50
g14
asS'Restaurants'
p51
(lp52
g3
asS'/Childrens'
p53
(lp54
g3
asS'Less'
p55
(lp56
g3
asS'skills'
p57
(lp58
g3
asS'Unable'
p59
(lp60
g3
asS'Go'
p61
(lp62
g3
asS"'SearchBar'"
p63
(lp64
g3
asS'/iss/credit/storecardmember'
p65
(lp66
g3
asS'tablet\xe2\x80\x94now'
p67
(lp68
g3
asS'/gp/gift'
p69
(lp70
g3
asS'leaders'
p71
(lp72
g14
asS'phones'
p73
(lp74
g3
asS'textbooks/b'
p75
(lp76
g3
asS'second'
p77
(lp78
g14
asS'Stationery'
p79
(lp80
g3
asS'9013971011'
p81
(lp82
g3
asS'specs'
p83
(lp84
g3
asS'Available'
p85
(lp86
g3
asS'asin'
p87
(lp88
g3
asS'spouses'
p89
(lp90
g14
asS'subnav_primephotos_amazondrive/b'
p91
(lp92
g3
asS'+'
p93
(lp94
g3
asS'/Wine'
p95
(lp96
g3
asS'Amazon'
p97
(lp98
g14
ag3
asS'new'
p99
(lp100
g3
asS'ever'
p101
(lp102
g3
asS'seeks'
p103
(lp104
g14
asS'16310091'
p105
(lp106
g3
asS'Happening'
p107
(lp108
g14
asS'interns'
p109
(lp110
g14
asS'Items'
p111
(lp112
g3
asS'Fees'
p113
(lp114
g3
asS'/Trade'
p115
(lp116
g3
asS'affiliates'
p117
(lp118
g3
asS'hundreds'
p119
(lp120
g14
asS'fun'
p121
(lp122
g14
asS'protection'
p123
(lp124
g3
asS'kids'
p125
(lp126
g3
asS'items'
p127
(lp128
g3
asS'employees'
p129
(lp130
g14
asS'Mojo'
p131
(lp132
g3
asS'Hair'
p133
(lp134
g3
asS'11091801'
p135
(lp136
g3
asS'/New'
p137
(lp138
g3
asS'Home'
p139
(lp140
g14
ag3
asS'fantastic'
p141
(lp142
g14
asS'Privacy'
p143
(lp144
g3
asS'Support'
p145
(lp146
g3
asS'Three'
p147
(lp148
g14
asS'Relations'
p149
(lp150
g14
ag3
asS'replace'
p151
(lp152
g3
asS'brought'
p153
(lp154
g14
asS'Behind'
p155
(lp156
g14
asS'Book'
p157
(lp158
g3
asS'Health'
p159
(lp160
g3
asS'Skates'
p161
(lp162
g3
asS'Products/b'
p163
(lp164
g3
asS'/gp/video/watchlist'
p165
(lp166
g3
asS'chargers'
p167
(lp168
g3
asS'Newsstand'
p169
(lp170
g3
asS'htmlList'
p171
(lp172
g3
asS'music'
p173
(lp174
g3
asS'Included'
p175
(lp176
g3
asS'322215011'
p177
(lp178
g3
asS'tell'
p179
(lp180
g14
asS'brings'
p181
(lp182
g14
asS'Introduces'
p183
(lp184
g14
asS'Devices'
p185
(lp186
g3
asS'it'
p187
(lp188
g14
ag3
asS'AUI_BOLT_62845'
p189
(lp190
g14
asS'388305011'
p191
(lp192
g3
asS'90'
p193
(lp194
g14
asS'Signing'
p195
(lp196
g3
asS'room'
p197
(lp198
g3
asS'1997'
p199
(lp200
g14
asS'1996'
p201
(lp202
g3
asS'pursue'
p203
(lp204
g14
asS'work'
p205
(lp206
g14
ag3
asS'movies'
p207
(lp208
g3
asS'/Handmade'
p209
(lp210
g3
asS'could'
p211
(lp212
g14
asS'give'
p213
(lp214
g14
asS'Bedding'
p215
(lp216
g3
asS'Virtual'
p217
(lp218
g14
asS'/dp/B01J24C0TI'
p219
(lp220
g3
asS'foods'
p221
(lp222
g3
asS'/Arts'
p223
(lp224
g3
asS'want'
p225
(lp226
g14
ag3
asS'Digital'
p227
(lp228
g3
asS"'CrossShop'"
p229
(lp230
g3
asS'Wheel'
p231
(lp232
g3
asS'11403468011'
p233
(lp234
g3
asS'/musical'
p235
(lp236
g3
asS'end'
p237
(lp238
g3
asS'provide'
p239
(lp240
g14
asS'/Computers'
p241
(lp242
g3
asS'feature'
p243
(lp244
g14
asS'/Vehicles/b'
p245
(lp246
g3
asS'how'
p247
(lp248
g14
asS'central/organizer'
p249
(lp250
g3
asS'scooters'
p251
(lp252
g3
asS'1003016361'
p253
(lp254
g3
asS'A'
p255
(lp256
g14
asS'/gp/subscribe'
p257
(lp258
g3
asS'after'
p259
(lp260
g14
asS'wrong'
p261
(lp262
S'https://www.amazon.com'
p263
asS'Watchlist'
p264
(lp265
g3
asS'Supplements/b'
p266
(lp267
g3
asS'Allowance'
p268
(lp269
g3
asS'/In'
p270
(lp271
g3
asS'All'
p272
(lp273
g14
ag3
asS'9209902011'
p274
(lp275
g3
asS'Save/b'
p276
(lp277
g3
asS'Quinn'
p278
(lp279
g14
asS'/Luxury'
p280
(lp281
g3
asS'/Computer'
p282
(lp283
g3
asS'Videos'
p284
(lp285
g3
asS'office'
p286
(lp287
g14
asS'Shoes/b'
p288
(lp289
g3
asS'over'
p290
(lp291
g14
ag3
asS'Opportunities'
p292
(lp293
g14
asS'Jules'
p294
(lp295
g14
asS'innovative'
p296
(lp297
g3
asS'rewarded'
p298
(lp299
g3
asS'Urban'
p300
(lp301
g14
asS'personal'
p302
(lp303
g3
asS'writing'
p304
(lp305
g14
asS'better'
p306
(lp307
g14
ag3
asS'Cutting'
p308
(lp309
g14
asS'Spain'
p310
(lp311
g14
asS'them'
p312
(lp313
g14
asS'Kids'
p314
(lp315
g3
asS'rsaquo'
p316
(lp317
g3
asS'break'
p318
(lp319
g3
asS'academics'
p320
(lp321
g14
asS'they'
p322
(lp323
g14
ag3
asS'Cards'
p324
(lp325
g3
asS'511228'
p326
(lp327
g3
asS'172541'
p328
(lp329
g3
asS'Control'
p330
(lp331
g3
asS'Indie'
p332
(lp333
g3
asS'1286228011'
p334
(lp335
g3
asS'India'
p336
(lp337
g14
asS'each'
p338
(lp339
g14
asS'Black'
p340
(lp341
g3
asS'went'
p342
(lp343
g263
asS'/camping'
p344
(lp345
g3
asS'Check'
p346
(lp347
g3
asS'Apps/b'
p348
(lp349
g3
asS'/gp/your'
p350
(lp351
g3
asS'taught'
p352
(lp353
g14
asS'by'
p354
(lp355
g3
asS'network'
p356
(lp357
g14
asS'dining/b'
p358
(lp359
g3
asS'Exercise'
p360
(lp361
g3
asS'7147440011'
p362
(lp363
g3
asS'debit'
p364
(lp365
g3
asS'revolving'
p366
(lp367
g3
asS'size'
p368
(lp369
g14
asS'5744819011'
p370
(lp371
g3
asS'Work'
p372
(lp373
g14
asS'free'
p374
(lp375
g3
asS'14866317011'
p376
(lp377
g3
asS'streamline'
p378
(lp379
g14
asS'6682399011'
p380
(lp381
g3
asS'Junglee'
p382
(lp383
g3
asS'Adapters'
p384
(lp385
g3
asS'Renting'
p386
(lp387
g3
asS'Photo'
p388
(lp389
g3
asS'diapers\\nand'
p390
(lp391
g3
asS'local'
p392
(lp393
g3
asS'98075'
p394
(lp395
g3
asS'AmazonGlobal'
p396
(lp397
g3
asS'industrial'
p398
(lp399
g3
asS'Working'
p400
(lp401
g14
asS'Prints'
p402
(lp403
g3
asS'Cell'
p404
(lp405
g3
asS'featured'
p406
(lp407
g3
asS'HandmadePanel'
p408
(lp409
g3
asS'Components/b'
p410
(lp411
g3
asS'toy'
p412
(lp413
g3
asS'Quilting'
p414
(lp415
g3
asS'service'
p416
(lp417
g3
asS'/home'
p418
(lp419
g3
asS'top'
p420
(lp421
g3
asS'16334314011'
p422
(lp423
g3
asS'Ghazal'
p424
(lp425
g14
asS'Press'
p426
(lp427
g14
asS'40th'
p428
(lp429
g14
asS'dogs'
p430
(lp431
g14
ag3
asS'ToysKidsBabyPanel'
p432
(lp433
g3
asS'rewards'
p434
(lp435
g3
asS'Rare'
p436
(lp437
g3
asS'Converter'
p438
(lp439
g3
asS'FoodGroceryPanel'
p440
(lp441
g3
asS'took'
p442
(lp443
g14
asS'Edge'
p444
(lp445
g14
asS'Fun'
p446
(lp447
g3
asS'Purchases'
p448
(lp449
g3
asS'Set'
p450
(lp451
g3
asS'target'
p452
(lp453
g3
asS'/cats'
p454
(lp455
g3
asS'tree'
p456
(lp457
g3
asS'See'
p458
(lp459
g3
asS'1000645111'
p460
(lp461
g3
asS'11261610011'
p462
(lp463
g3
asS'Recruiting'
p464
(lp465
g14
asS'cave/b'
p466
(lp467
g3
asS'devices/b'
p468
(lp469
g3
asS'accessories/b'
p470
(lp471
g3
asS'Holly'
p472
(lp473
g14
asS'ray'
p474
(lp475
g3
asS'14552177011'
p476
(lp477
g3
asS'17296384011'
p478
(lp479
g3
asS'releases'
p480
(lp481
g3
asS'/man'
p482
(lp483
g3
asS'Tuition'
p484
(lp485
g14
asS'Economic'
p486
(lp487
g14
asS'cartContent'
p488
(lp489
g3
asS'Beryl\xe2\x80\x99s'
p490
(lp491
g14
asS'even'
p492
(lp493
g3
asS'Refunds'
p494
(lp495
g3
asS'Artist'
p496
(lp497
g14
asS'Computers'
p498
(lp499
g3
asS'/dp/B074TTVQYP'
p500
(lp501
g3
asS'2983386011'
p502
(lp503
g3
asS'/dp/B00NB86OYE'
p504
(lp505
g3
asS'corporate'
p506
(lp507
g14
asS'points'
p508
(lp509
g3
asS'/Currency'
p510
(lp511
g3
asS'Seattleite'
p512
(lp513
g14
asS'/AmazonFresh/b'
p514
(lp515
g3
asS'/meet'
p516
(lp517
g3
asS'15684181'
p518
(lp519
g3
asS'participate'
p520
(lp521
g14
asS'Resources'
p522
(lp523
g3
asS'Premium'
p524
(lp525
g3
asS'menu'
p526
(lp527
g3
asS'Game'
p528
(lp529
g3
asS'Free'
p530
(lp531
g3
asS'EastDane'
p532
(lp533
g3
asS'here'
p534
(lp535
g3
asS'Sustainability'
p536
(lp537
g14
asS'9479199011'
p538
(lp539
g3
asS'Furniture'
p540
(lp541
g3
asS'do'
p542
(lp543
g14
ag3
asS'Account'
p544
(lp545
g3
asS'Netherlands'
p546
(lp547
g14
asS'Curious'
p548
(lp549
g14
asS'Turns'
p550
(lp551
g3
asS'da'
p552
(lp553
g14
asS'amazon'
p554
(lp555
g3
asS'supplies'
p556
(lp557
g3
asS'countries'
p558
(lp559
g14
asS'9818047011'
p560
(lp561
g3
asS'AUI_107069'
p562
(lp563
g14
asS'Garden/b'
p564
(lp565
g3
asS'Supplies/b'
p566
(lp567
g3
asS'Networking'
p568
(lp569
g3
asS'Pets'
p570
(lp571
g3
asS'Pet'
p572
(lp573
g3
asS'Recommended'
p574
(lp575
g3
asS'decided'
p576
(lp577
g14
asS'fail'
p578
(lp579
g14
asS'Android'
p580
(lp581
g3
asS'John'
p582
(lp583
g14
asS'Dogs'
p584
(lp585
g14
ag3
asS'best'
p586
(lp587
g3
asS'14981443011'
p588
(lp589
g3
asS'Choice'
p590
(lp591
g14
asS'Water'
p592
(lp593
g3
asS'Appstore'
p594
(lp595
g3
asS'BeautyHealthPanel'
p596
(lp597
g3
asS'Innovating'
p598
(lp599
g14
asS'Info'
p600
(lp601
g3
asS'warrior'
p602
(lp603
g14
asS'C'
p604
(lp605
g14
asS'Settings'
p606
(lp607
g3
asS'/Amazon'
p608
(lp609
g3
asS'kids\xe2\x80\x99'
p610
(lp611
g3
asS'drew'
p612
(lp613
g14
asS'upfront'
p614
(lp615
g14
asS'convertible'
p616
(lp617
g14
asS'intelligent'
p618
(lp619
g3
asS'165793011'
p620
(lp621
g3
asS'kitchen'
p622
(lp623
g3
asS'/gp/yourstore'
p624
(lp625
g3
asS'yourAccountContent'
p626
(lp627
g3
asS'Guidelines'
p628
(lp629
g3
asS'Laura'
p630
(lp631
g14
asS'players'
p632
(lp633
g3
asS'Computer'
p634
(lp635
g3
asS'games'
p636
(lp637
g3
asS'com'
p638
(lp639
g14
ag3
asS'asked'
p640
(lp641
g3
asS'Video/s/browse'
p642
(lp643
g3
asS'/mn/dcw/myx'
p644
(lp645
g3
asS'6685269011'
p646
(lp647
g3
asS'hardworking'
p648
(lp649
g14
asS'TVs'
p650
(lp651
g3
asS'2975312011'
p652
(lp653
g3
asS'Returns'
p654
(lp655
g3
asS'Sorry'
p656
(lp657
g263
asS'Zappos'
p658
(lp659
g3
asS'Amazonian'
p660
(lp661
g14
asS'Fasteners/b'
p662
(lp663
g3
asS'Sewing'
p664
(lp665
g3
asS'three'
p666
(lp667
g14
asS'HomeServicesPanel'
p668
(lp669
g3
asS'Boxes'
p670
(lp671
g3
asS'Cleaning'
p672
(lp673
g3
asS'life'
p674
(lp675
g3
asS'Talented'
p676
(lp677
g14
asS'Vibrant'
p678
(lp679
g3
asS'Voice'
p680
(lp681
g3
asS'10677469011'
p682
(lp683
g3
asS'save'
p684
(lp685
g3
asS'Athletic'
p686
(lp687
g3
asS'AUI_51744'
p688
(lp689
g14
asS'Manage'
p690
(lp691
g3
asS'2204518011'
p692
(lp693
g3
asS'Culture'
p694
(lp695
g14
asS'voice'
p696
(lp697
g3
asS'Wearable'
p698
(lp699
g3
asS'launched'
p700
(lp701
g14
asS'Collectibles'
p702
(lp703
g3
asS'is'
p704
(lp705
g14
asS'accessories'
p706
(lp707
g3
asS'player'
p708
(lp709
g3
asS'in'
p710
(lp711
g14
ag3
asS'Pantry/b'
p712
(lp713
g3
asS'ie'
p714
(lp715
g3
asS'id'
p716
(lp717
g3
asS'7031433011'
p718
(lp719
g3
asS'/gp/registry/search'
p720
(lp721
g3
asS'Gear'
p722
(lp723
g3
asS'credit'
p724
(lp725
g3
asS'patent'
p726
(lp727
g14
asS'things'
p728
(lp729
g14
ag3
asS'make'
p730
(lp731
g14
asS'President'
p732
(lp733
g14
asS'eBooks'
p734
(lp735
g3
asS'templates'
p736
(lp737
g3
asS'2231352011'
p738
(lp739
g3
asS'Room'
p740
(lp741
g3
asS'ibprox'
p742
(lp743
g3
asS'shop/b'
p744
(lp745
g3
asS'photographers'
p746
(lp747
g14
asS'/gp/dmusic/mp3/player'
p748
(lp749
g3
asS'ownership'
p750
(lp751
g14
asS'military'
p752
(lp753
g14
asS'12034506011'
p754
(lp755
g3
asS'14583169011'
p756
(lp757
g3
asS'boxes'
p758
(lp759
g3
asS'Canine'
p760
(lp761
g14
asS'the'
p762
(lp763
g14
ag3
asS'800'
p764
(lp765
g3
asS'Clothing'
p766
(lp767
g3
asS'seasonal'
p768
(lp769
g14
asS'just'
p770
(lp771
g14
asS'photo'
p772
(lp773
g14
asS'/Games/b'
p774
(lp775
g3
asS'identify'
p776
(lp777
g14
asS'human'
p778
(lp779
g14
asS'/Power'
p780
(lp781
g3
asS'yet'
p782
(lp783
g14
asS'Happy'
p784
(lp785
g14
asS'collars'
p786
(lp787
g3
asS'Games/b'
p788
(lp789
g3
asS'beloved'
p790
(lp791
g14
asS'News'
p792
(lp793
g14
asS'has'
p794
(lp795
g14
asS'Building'
p796
(lp797
g14
asS'Bowman'
p798
(lp799
g14
asS'Setup'
p800
(lp801
g3
asS'iOS'
p802
(lp803
g3
asS'Shorts/b'
p804
(lp805
g3
asS'Try'
p806
(lp807
g3
asS'SportsOutdoorsT1Panel'
p808
(lp809
g3
asS'unique'
p810
(lp811
g14
asS'Audible'
p812
(lp813
g3
asS'Wine'
p814
(lp815
g3
asS'AUI_UX_98513'
p816
(lp817
g14
asS'Heart'
p818
(lp819
g14
asS'Art'
p820
(lp821
g3
asS'/gp/product/B074TW1JKX'
p822
(lp823
g3
asS'Echo'
p824
(lp825
g3
asS'purchase'
p826
(lp827
g3
asS'offices'
p828
(lp829
g14
asS'229534'
p830
(lp831
g3
asS'night'
p832
(lp833
g3
asS'security'
p834
(lp835
g3
asS"Amazonians'"
p836
(lp837
g14
asS'right'
p838
(lp839
g14
ag3
asS'8946438011'
p840
(lp841
g3
asS'people'
p842
(lp843
g14
asS'346333011'
p844
(lp845
g3
asS'HQ'
p846
(lp847
g14
asS'11403495011'
p848
(lp849
g3
asS'intern'
p850
(lp851
g14
asS'MP3'
p852
(lp853
g3
asS'HD'
p854
(lp855
g3
asS'Life'
p856
(lp857
g14
asS'for'
p858
(lp859
g14
ag3
asS'Downloads'
p860
(lp861
g3
asS'/STRING'
p862
(lp863
g3
asS'/'
p864
(lp865
g3
asS'Gifts'
p866
(lp867
g3
asS'Hi'
p868
(lp869
g3
asS'Let'
p870
(lp871
g3
asS'External'
p872
(lp873
g3
asS'He'
p874
(lp875
g14
asS'School'
p876
(lp877
g3
asS'grooming/b'
p878
(lp879
g3
asS'Instant'
p880
(lp881
g3
asS'subscriptions'
p882
(lp883
g3
asS'Daily'
p884
(lp885
g3
asS'Garage'
p886
(lp887
g3
asS'8514636011'
p888
(lp889
g3
asS'11051400011'
p890
(lp891
g3
asS'OS'
p892
(lp893
g3
asS'Men\xe2\x80\x99s'
p894
(lp895
g3
asS'AUI_57326'
p896
(lp897
g14
asS'\xe2\x80\x9cWe'
p898
(lp899
g14
asS'connected'
p900
(lp901
g3
asS'Use'
p902
(lp903
g14
ag3
asS'10329849011'
p904
(lp905
g3
asS'sheets'
p906
(lp907
g3
asS'Make'
p908
(lp909
g3
asS'garage/'
p910
(lp911
g3
asS'bath'
p912
(lp913
g3
asS'gearing'
p914
(lp915
g14
asS'easy'
p916
(lp917
g3
asS'1266092011'
p918
(lp919
g3
asS'Equipment/b'
p920
(lp921
g3
asS'/Plumbing'
p922
(lp923
g3
asS'support'
p924
(lp925
g14
asS"Men's"
p926
(lp927
g3
asS'Hand'
p928
(lp929
g3
asS'104259'
p930
(lp931
g3
asS'/iss/credit/rewardscardmember'
p932
(lp933
g3
asS'way'
p934
(lp935
g3
asS'Broad'
p936
(lp937
g14
asS'Shopbop'
p938
(lp939
g3
asS'was'
p940
(lp941
g14
asS'halls'
p942
(lp943
g14
asS'Promotions'
p944
(lp945
g3
asS'navmet'
p946
(lp947
g3
asS'offer'
p948
(lp949
g14
asS'Converter/b'
p950
(lp951
g3
asS'Disability'
p952
(lp953
g3
asS'Video/b'
p954
(lp955
g3
asS'/kindle'
p956
(lp957
g3
asS'Z'
p958
(lp959
g14
asS'true'
p960
(lp961
g3
asS'Frankie'
p962
(lp963
g14
asS'7589478011'
p964
(lp965
g3
asS'Household'
p966
(lp967
g3
asS'devices'
p968
(lp969
g3
asS'Kaper'
p970
(lp971
g14
asS'Grateful'
p972
(lp973
g14
asS'Lock'
p974
(lp975
g3
asS'/Networking'
p976
(lp977
g3
asS'Pinto'
p978
(lp979
g14
asS'Automotive/b'
p980
(lp981
g3
asS'/Hardware'
p982
(lp983
g3
asS'Ink'
p984
(lp985
g3
asS'Publishing'
p986
(lp987
g3
asS'Personal'
p988
(lp989
g3
asS'/Material'
p990
(lp991
g3
asS'15%'
p992
(lp993
g3
asS'Melissa'
p994
(lp995
g14
asS'10192827011'
p996
(lp997
g3
asS'/Tools'
p998
(lp999
g3
asS'Track'
p1000
(lp1001
g3
asS'when'
p1002
(lp1003
g14
asS'role'
p1004
(lp1005
g14
asS'shopping/b'
p1006
(lp1007
g3
asS'Outdoors/b'
p1008
(lp1009
g3
asS'node'
p1010
(lp1011
g3
asS'picture'
p1012
(lp1013
g3
asS'Ranks'
p1014
(lp1015
g14
asS'Gifting'
p1016
(lp1017
g3
asS'Drive'
p1018
(lp1019
g3
asS'/baby'
p1020
(lp1021
g3
asS'Salon'
p1022
(lp1023
g3
asS'AmazonFresh'
p1024
(lp1025
g3
asS'phone'
p1026
(lp1027
g3
asS'Mendelson'
p1028
(lp1029
g14
asS'2901953011'
p1030
(lp1031
g3
asS'Principles'
p1032
(lp1033
g14
asS'together'
p1034
(lp1035
g14
asS'beds'
p1036
(lp1037
g3
asS'Fire'
p1038
(lp1039
g3
asS'time'
p1040
(lp1041
g14
asS'push'
p1042
(lp1043
g3
asS'songs'
p1044
(lp1045
g3
asS'requiresSignIn'
p1046
(lp1047
g3
asS'focus'
p1048
(lp1049
g3
asS'supplies/b'
p1050
(lp1051
g3
asS'Introducing'
p1052
(lp1053
g3
asS'essentials'
p1054
(lp1055
g3
asS'million'
p1056
(lp1057
g3
asS'show'
p1058
(lp1059
g3
asS'HDR'
p1060
(lp1061
g3
asS'0'
p1062
(lp1063
g3
asS'HomeGardenToolsPanel'
p1064
(lp1065
g3
asS'veterans'
p1066
(lp1067
g14
asS'advantage'
p1068
(lp1069
g14
asS'Countries'
p1070
(lp1071
g14
asS'Recruit'
p1072
(lp1073
g14
asS'choice'
p1074
(lp1075
g14
asS'MainEnd'
p1076
(lp1077
g3
asS'Plus'
p1078
(lp1079
g3
asS'fitness/b'
p1080
(lp1081
g3
asS'11260432011'
p1082
(lp1083
g3
asS'154606011'
p1084
(lp1085
g3
asS'jazz/b'
p1086
(lp1087
g3
asS'Thermostat'
p1088
(lp1089
g3
asS'/dp/B01GEW27DA'
p1090
(lp1091
g3
asS'Global'
p1092
(lp1093
g14
asS'Tax'
p1094
(lp1095
g3
asS'/Rare'
p1096
(lp1097
g3
asS'litter/b'
p1098
(lp1099
g3
asS'Accounts'
p1100
(lp1101
g3
asS'team'
p1102
(lp1103
g14
asS'11453461011'
p1104
(lp1105
g3
asS'Graybill'
p1106
(lp1107
g14
asS'Tablet'
p1108
(lp1109
g3
asS'502394'
p1110
(lp1111
g3
asS'sign'
p1112
(lp1113
g3
asS'Finding'
p1114
(lp1115
g14
asS'account/myapps'
p1116
(lp1117
g3
asS'/Sell'
p1118
(lp1119
g3
asS'Red'
p1120
(lp1121
g3
asS'Look'
p1122
(lp1123
g3
asS'Subscriptions'
p1124
(lp1125
g3
asS'Automotive'
p1126
(lp1127
g3
asS"'Logo'"
p1128
(lp1129
g3
asS'current'
p1130
(lp1131
g14
asS'Explore'
p1132
(lp1133
g14
ag3
asS'template'
p1134
(lp1135
g3
asS'/health'
p1136
(lp1137
g3
asS'/Janitorial'
p1138
(lp1139
g3
asS'shopAllTimeout'
p1140
(lp1141
g3
asS'/Boys'
p1142
(lp1143
g3
asS'transportation'
p1144
(lp1145
g14
asS'/Motorcycle'
p1146
(lp1147
g3
asS'Sewing/b'
p1148
(lp1149
g3
asS'wlTriggers'
p1150
(lp1151
g3
asS'English'
p1152
(lp1153
g3
asS'Kaizen'
p1154
(lp1155
g14
asS'David'
p1156
(lp1157
g14
asS'Amazon\xe2\x80\x99s'
p1158
(lp1159
g14
asS'America\xe2\x80\x99s'
p1160
(lp1161
g3
asS'Anima'
p1162
(lp1163
g14
asS'Janitorial'
p1164
(lp1165
g3
asS'5856181011'
p1166
(lp1167
g3
asS'Associates'
p1168
(lp1169
g14
asS'history'
p1170
(lp1171
g14
ag3
asS'Technology'
p1172
(lp1173
g14
ag3
asS'engineer'
p1174
(lp1175
g14
asS'love'
p1176
(lp1177
g14
asS'/Entertainment'
p1178
(lp1179
g3
asS'purchases'
p1180
(lp1181
g3
asS'2617941011'
p1182
(lp1183
g3
asS"It's"
p1184
(lp1185
g14
asS'228013'
p1186
(lp1187
g3
asS'When'
p1188
(lp1189
g14
asS'kayak'
p1190
(lp1191
g14
asS'/skateboarding'
p1192
(lp1193
g3
asS'Customers'
p1194
(lp1195
g14
asS'Australia'
p1196
(lp1197
g14
asS'working'
p1198
(lp1199
g14
asS'UTF8'
p1200
(lp1201
g3
asS'sports'
p1202
(lp1203
g3
asS'Visa'
p1204
(lp1205
g3
asS'itemList'
p1206
(lp1207
g3
asS'Cedric'
p1208
(lp1209
g14
asS'/Outdoor'
p1210
(lp1211
g3
asS'Calling'
p1212
(lp1213
g3
asS'downtown'
p1214
(lp1215
g14
asS"Children's"
p1216
(lp1217
g3
asS'Affiliate'
p1218
(lp1219
g3
asS'Family'
p1220
(lp1221
g14
ag3
asS'currency'
p1222
(lp1223
g3
asS'Pays'
p1224
(lp1225
g14
asS'CBCCGNO'
p1226
(lp1227
g3
asS'Bath'
p1228
(lp1229
g3
asS'reviews'
p1230
(lp1231
g3
asS'Locks'
p1232
(lp1233
g3
asS'/office'
p1234
(lp1235
g3
asS'can'
p1236
(lp1237
g14
ag3
asS'Appliances'
p1238
(lp1239
g3
asS'growing'
p1240
(lp1241
g3
asS'Our'
p1242
(lp1243
g14
ag3
asS'Throughout'
p1244
(lp1245
g14
asS'heart'
p1246
(lp1247
g14
asS'figure'
p1248
(lp1249
g14
asS'/Multiroom'
p1250
(lp1251
g3
asS"didn't"
p1252
(lp1253
g14
asS'Score'
p1254
(lp1255
g3
asS'clothing'
p1256
(lp1257
g3
asS'Shows'
p1258
(lp1259
g3
asS'apps/b'
p1260
(lp1261
g3
asS'Terms'
p1262
(lp1263
g3
asS'Missing'
p1264
(lp1265
g3
asS'1'
p1266
(lp1267
g3
asS'Oasis'
p1268
(lp1269
g3
asS'Demand'
p1270
(lp1271
g14
asS'Why'
p1272
(lp1273
g14
asS'2858778011'
p1274
(lp1275
g3
asS'599858'
p1276
(lp1277
g3
asS'/Coupons/b'
p1278
(lp1279
g3
asS'Always'
p1280
(lp1281
g3
asS'Memberships'
p1282
(lp1283
g3
asS'birthday'
p1284
(lp1285
g14
asS'Gaming'
p1286
(lp1287
g3
asS'Become'
p1288
(lp1289
g14
ag3
asS'Corporate'
p1290
(lp1291
g3
asS'15547130011'
p1292
(lp1293
g3
asS'/Prime'
p1294
(lp1295
g3
asS'View'
p1296
(lp1297
g3
asS'Exclusive'
p1298
(lp1299
g3
asS'/gp/registry/wishlist'
p1300
(lp1301
g3
asS'901590'
p1302
(lp1303
g3
asS'Shoes'
p1304
(lp1305
g3
asS'conscious'
p1306
(lp1307
g14
asS'6th'
p1308
(lp1309
g3
asS'/Headphones'
p1310
(lp1311
g3
asS'so'
p1312
(lp1313
g14
asS'Purchase'
p1314
(lp1315
g3
asS'Ship'
p1316
(lp1317
g3
asS'Ayuda'
p1318
(lp1319
g3
asS'Storage/b'
p1320
(lp1321
g3
asS'serving'
p1322
(lp1323
g14
asS'shoes'
p1324
(lp1325
g3
asS'Hunting'
p1326
(lp1327
g3
asS"Amazon's"
p1328
(lp1329
g14
asS'Fitness'
p1330
(lp1331
g3
asS'professors'
p1332
(lp1333
g14
asS'tablets'
p1334
(lp1335
g3
asS'nbsp'
p1336
(lp1337
g3
asS'White'
p1338
(lp1339
g3
asS'still'
p1340
(lp1341
g14
asS'3402401'
p1342
(lp1343
g3
asS'Unlimited'
p1344
(lp1345
g3
asS'Healthiest'
p1346
(lp1347
g3
asS'window'
p1348
(lp1349
g3
asS'caretaker'
p1350
(lp1351
g14
asS'Using'
p1352
(lp1353
g3
asS'main'
p1354
(lp1355
g14
ag3
asS'into'
p1356
(lp1357
g3
asS'Audiobooks/b'
p1358
(lp1359
g3
asS'11403480011'
p1360
(lp1361
g3
asS'Improvement/b'
p1362
(lp1363
g3
asS'11403488011'
p1364
(lp1365
g3
asS'2205237011'
p1366
(lp1367
g3
asS'She'
p1368
(lp1369
g14
asS'now'
p1370
(lp1371
g14
ag3
asS'\\'
p1372
(lp1373
g3
asS'Methods'
p1374
(lp1375
g3
asS'down'
p1376
(lp1377
g14
asS'name'
p1378
(lp1379
g14
ag3
asS'Their'
p1380
(lp1381
g14
asS'Distribute'
p1382
(lp1383
g3
asS'rock'
p1384
(lp1385
g3
asS'Event'
p1386
(lp1387
g3
asS'en'
p1388
(lp1389
g3
asS'retrieve'
p1390
(lp1391
g3
asS'Legal'
p1392
(lp1393
g3
asS'challenges'
p1394
(lp1395
g14
asS'year'
p1396
(lp1397
g14
asS'Save'
p1398
(lp1399
g3
asS'beauty'
p1400
(lp1401
g3
asS'Therese'
p1402
(lp1403
g14
asS'/dogs'
p1404
(lp1405
g3
asS'Connected'
p1406
(lp1407
g14
asS'/Mens'
p1408
(lp1409
g3
asS'Student/b'
p1410
(lp1411
g3
asS'shows'
p1412
(lp1413
g3
asS"Designer's"
p1414
(lp1415
g14
asS'Theater'
p1416
(lp1417
g3
asS'List'
p1418
(lp1419
g3
asS'/winter'
p1420
(lp1421
g3
asS'cart'
p1422
(lp1423
g3
asS'bitCampaignCode'
p1424
(lp1425
g3
asS'vinyl'
p1426
(lp1427
g3
asS'KindleFireTabletPanel'
p1428
(lp1429
g3
asS'card'
p1430
(lp1431
g3
asS'care'
p1432
(lp1433
g3
asS'TenMarks'
p1434
(lp1435
g3
asS'training'
p1436
(lp1437
g14
ag3
asS'/Cycling'
p1438
(lp1439
g3
asS'Money'
p1440
(lp1441
g3
asS'App'
p1442
(lp1443
g3
asS'Sign'
p1444
(lp1445
g14
ag3
asS'thing'
p1446
(lp1447
g14
asS'place'
p1448
(lp1449
g14
asS'husband'
p1450
(lp1451
g14
asS'/Audible'
p1452
(lp1453
g3
asS'think'
p1454
(lp1455
g14
asS'first'
p1456
(lp1457
g14
asS'Brazil'
p1458
(lp1459
g14
asS'/gp/subs/primeclub/account/homepage'
p1460
(lp1461
g3
asS'one'
p1462
(lp1463
g14
asS'ATV'
p1464
(lp1465
g3
asS'Start'
p1466
(lp1467
g3
asS'Rates'
p1468
(lp1469
g3
asS'fast'
p1470
(lp1471
g3
asS'directly'
p1472
(lp1473
g3
asS'millions'
p1474
(lp1475
g14
ag3
asS'city'
p1476
(lp1477
g14
asS'given'
p1478
(lp1479
g14
asS'11403478011'
p1480
(lp1481
g3
asS'reg/homepage'
p1482
(lp1483
g3
asS'Problems'
p1484
(lp1485
g3
asS'furniture/b'
p1486
(lp1487
g3
asS'/photos'
p1488
(lp1489
g3
asS'2'
p1490
(lp1491
g3
asS'Collectibles/b'
p1492
(lp1493
g3
asS'/clouddrive'
p1494
(lp1495
g3
asS'Date'
p1496
(lp1497
g3
asS'organic/b'
p1498
(lp1499
g3
asS'Stylish'
p1500
(lp1501
g3
asS'nutrition'
p1502
(lp1503
g3
asS'Keeping'
p1504
(lp1505
g14
asS'172504'
p1506
(lp1507
g3
asS'hub'
p1508
(lp1509
g3
asS'that'
p1510
(lp1511
g14
ag3
asS'Apps'
p1512
(lp1513
g3
asS'Skin'
p1514
(lp1515
g3
asS'Choate'
p1516
(lp1517
g14
asS'Install'
p1518
(lp1519
g3
asS'specialists'
p1520
(lp1521
g14
asS'Grooming'
p1522
(lp1523
g3
asS'than'
p1524
(lp1525
g14
asS'10112676011'
p1526
(lp1527
g3
asS'10'
p1528
(lp1529
g3
asS'television'
p1530
(lp1531
g14
asS'12'
p1532
(lp1533
g3
asS'Love'
p1534
(lp1535
g3
asS'depressed'
p1536
(lp1537
g14
asS'668781011'
p1538
(lp1539
g3
asS'Analytics'
p1540
(lp1541
g3
asS'future'
p1542
(lp1543
g14
asS'were'
p1544
(lp1545
g14
asS'Advertise'
p1546
(lp1547
g3
asS'and'
p1548
(lp1549
g14
ag3
asS'InstantVideoPanel'
p1550
(lp1551
g3
asS'primeTimeout'
p1552
(lp1553
g3
asS'Sites'
p1554
(lp1555
g3
asS'Submit'
p1556
(lp1557
g3
asS'PhD'
p1558
(lp1559
g14
asS'/Sports'
p1560
(lp1561
g3
asS'Computers/b'
p1562
(lp1563
g3
asS'Call'
p1564
(lp1565
g14
asS'breakfast'
p1566
(lp1567
g3
asS'any'
p1568
(lp1569
g3
asS'veteran'
p1570
(lp1571
g14
asS'ideas'
p1572
(lp1573
g14
asS'/gp/digital/fiona/manage'
p1574
(lp1575
g3
asS'take'
p1576
(lp1577
g14
asS'online'
p1578
(lp1579
g14
asS'performance'
p1580
(lp1581
g3
asS'Investor'
p1582
(lp1583
g14
ag3
asS'begin'
p1584
(lp1585
g3
asS'Package'
p1586
(lp1587
g3
asS'Tablets/b'
p1588
(lp1589
g3
asS'2335752011'
p1590
(lp1591
g3
asS'20%'
p1592
(lp1593
g3
asS'/Televisions'
p1594
(lp1595
g3
asS'Depository'
p1596
(lp1597
g3
asS'/Event'
p1598
(lp1599
g3
asS'sprinting'
p1600
(lp1601
g14
asS'failure'
p1602
(lp1603
g14
asS'later'
p1604
(lp1605
g3
asS'drive'
p1606
(lp1607
g14
asS'Actively'
p1608
(lp1609
g14
asS'Groceries'
p1610
(lp1611
g3
asS'\\nOur'
p1612
(lp1613
g3
asS'Adults/gfhz/'
p1614
(lp1615
g3
asS'163856011'
p1616
(lp1617
g3
asS'width'
p1618
(lp1619
g3
asS'Fifth'
p1620
(lp1621
g14
asS'Web'
p1622
(lp1623
g3
asS'/coins'
p1624
(lp1625
g3
asS'promoID'
p1626
(lp1627
g3
asS'discovered'
p1628
(lp1629
g14
asS'Role'
p1630
(lp1631
g14
asS'teamed'
p1632
(lp1633
g14
asS'Smile'
p1634
(lp1635
g14
asS'Balance/b'
p1636
(lp1637
g3
asS'data'
p1638
(lp1639
g3
asS'We'
p1640
(lp1641
g14
asS'title'
p1642
(lp1643
g3
asS'Skateboards'
p1644
(lp1645
g3
asS'Handpicked'
p1646
(lp1647
g3
asS'only'
p1648
(lp1649
g14
asS'Leadership'
p1650
(lp1651
g14
asS'Services'
p1652
(lp1653
g3
asS'Magician'
p1654
(lp1655
g14
asS'7147441011'
p1656
(lp1657
g3
asS'Gear/b'
p1658
(lp1659
g3
asS'get'
p1660
(lp1661
g3
asS'plattr'
p1662
(lp1663
g3
asS'13854994011'
p1664
(lp1665
g3
asS'Magazine'
p1666
(lp1667
g14
ag3
asS'Products'
p1668
(lp1669
g14
ag3
asS'prime'
p1670
(lp1671
g3
asS'Right'
p1672
(lp1673
g14
asS'bestselling'
p1674
(lp1675
g3
asS'Reclaiming'
p1676
(lp1677
g14
asS'/gp/product/B074PHNBYN'
p1678
(lp1679
g3
asS'where'
p1680
(lp1681
g14
asS'vision'
p1682
(lp1683
g14
ag3
asS'Educational'
p1684
(lp1685
g3
asS'Storage'
p1686
(lp1687
g3
asS'/gp/help/customer/display'
p1688
(lp1689
g3
asS'Publish'
p1690
(lp1691
g3
asS'Taney'
p1692
(lp1693
g14
asS'nav_t_after_preload_sprite'
p1694
(lp1695
g3
asS'/gp/css/order'
p1696
(lp1697
g3
asS'Shopping'
p1698
(lp1699
g3
asS'/dp/B01DFKC2SO'
p1700
(lp1701
g3
asS'eBooks/b'
p1702
(lp1703
g3
asS'That'
p1704
(lp1705
g14
asS'jumped'
p1706
(lp1707
g14
asS"father's"
p1708
(lp1709
g14
asS'behind'
p1710
(lp1711
g14
asS'between'
p1712
(lp1713
g3
asS'enjoys'
p1714
(lp1715
g14
asS'reading'
p1716
(lp1717
g3
asS'across'
p1718
(lp1719
g14
asS'browsers'
p1720
(lp1721
g3
asS'jobs'
p1722
(lp1723
g14
asS'screen'
p1724
(lp1725
g3
asS'Jewelry/b'
p1726
(lp1727
g3
asS'Team'
p1728
(lp1729
g3
asS'1057792'
p1730
(lp1731
g3
asS'cities'
p1732
(lp1733
g3
asS'PLCCGNO'
p1734
(lp1735
g3
asS'installation'
p1736
(lp1737
g3
asS'talented'
p1738
(lp1739
g14
asS'284507'
p1740
(lp1741
g3
asS'Give'
p1742
(lp1743
g14
asS'many'
p1744
(lp1745
g14
asS'Through'
p1746
(lp1747
g14
asS'workplace'
p1748
(lp1749
g14
asS'Everyday'
p1750
(lp1751
g3
asS'Silva'
p1752
(lp1753
g14
asS'1292110011'
p1754
(lp1755
g3
asS'pop'
p1756
(lp1757
g3
asS'learning'
p1758
(lp1759
g14
asS'Wheels/b'
p1760
(lp1761
g3
asS'Collectible'
p1762
(lp1763
g3
asS'Buy'
p1764
(lp1765
g3
asS'Assembly'
p1766
(lp1767
g3
asS'Beauty'
p1768
(lp1769
g3
asS'we\xe2\x80\x99ll'
p1770
(lp1771
g3
asS'Luckily'
p1772
(lp1773
g14
asS'Harris'
p1774
(lp1775
g14
asS'Stick'
p1776
(lp1777
g3
asS'featuring'
p1778
(lp1779
g3
asS'/Monitors'
p1780
(lp1781
g3
asS'Lawn'
p1782
(lp1783
g3
asS'shopping'
p1784
(lp1785
g3
asS'Originals'
p1786
(lp1787
g3
asS'releases\\n'
p1788
(lp1789
g3
asS'laptops'
p1790
(lp1791
g3
asS'/Lighting'
p1792
(lp1793
g3
asS'Points'
p1794
(lp1795
g3
asS'Learn'
p1796
(lp1797
g3
asS'/restaurants/m/popular'
p1798
(lp1799
g3
asS'those'
p1800
(lp1801
g14
asS'pilot'
p1802
(lp1803
g14
asS'sound'
p1804
(lp1805
g3
asS'/Rent'
p1806
(lp1807
g3
asS'might'
p1808
(lp1809
g14
asS'recreation/b'
p1810
(lp1811
g3
asS'cash'
p1812
(lp1813
g3
asS'diverse'
p1814
(lp1815
g14
asS'Phones'
p1816
(lp1817
g3
asS'shops'
p1818
(lp1819
g3
asS'Open'
p1820
(lp1821
g3
asS'Woot'
p1822
(lp1823
g3
asS'skills/b'
p1824
(lp1825
g3
asS'Content'
p1826
(lp1827
g3
asS'Compelling'
p1828
(lp1829
g14
asS'return'
p1830
(lp1831
g3
asS'technology'
p1832
(lp1833
g14
asS'everyday'
p1834
(lp1835
g3
asS'createList'
p1836
(lp1837
g3
asS'3386071'
p1838
(lp1839
g3
asS'13283810011'
p1840
(lp1841
g3
asS'different'
p1842
(lp1843
g14
asS'impact'
p1844
(lp1845
g14
asS'html'
p1846
(lp1847
g3
asS'Vinyl'
p1848
(lp1849
g3
asS'Tours'
p1850
(lp1851
g14
asS'kindleTimeout'
p1852
(lp1853
g3
asS'week'
p1854
(lp1855
g14
asS'I'
p1856
(lp1857
g14
asS'driver'
p1858
(lp1859
g14
asS'Souq'
p1860
(lp1861
g3
asS'Anywhere'
p1862
(lp1863
g3
asS'Dream'
p1864
(lp1865
g14
asS'Patio'
p1866
(lp1867
g3
asS'She\xe2\x80\x99s'
p1868
(lp1869
g14
asS'Made'
p1870
(lp1871
g3
asS'May'
p1872
(lp1873
g14
asS'Rent'
p1874
(lp1875
g3
asS'In'
p1876
(lp1877
g14
ag3
asS'researchers'
p1878
(lp1879
g14
asS'If'
p1880
(lp1881
g14
ag3
asS'HBO'
p1882
(lp1883
g3
asS'United'
p1884
(lp1885
g14
ag3
asS'Service'
p1886
(lp1887
g14
ag3
asS'being'
p1888
(lp1889
g14
asS'handmade'
p1890
(lp1891
g3
asS'Sharie'
p1892
(lp1893
g14
asS'/compare'
p1894
(lp1895
g3
asS'weekly'
p1896
(lp1897
g3
asS'Tierce'
p1898
(lp1899
g14
asS'exclusive\xc2\xa0deals\xc2\xa0with'
p1900
(lp1901
g3
asS'rose'
p1902
(lp1903
g14
asS'Spot'
p1904
(lp1905
g3
asS'Anandkumar'
p1906
(lp1907
g14
asS'desktop'
p1908
(lp1909
g3
asS'4'
p1910
(lp1911
g14
ag3
asS'Travel'
p1912
(lp1913
g3
asS'careers'
p1914
(lp1915
g14
asS'real'
p1916
(lp1917
g14
asS'/dp/B06XCM9LJ4'
p1918
(lp1919
g3
asS'around'
p1920
(lp1921
g14
asS'/gp/product/B01N2B397N'
p1922
(lp1923
g3
asS'read'
p1924
(lp1925
g3
asS'Girls'
p1926
(lp1927
g3
asS'Headphones'
p1928
(lp1929
g3
asS'Headquarters'
p1930
(lp1931
g14
asS'bedding/b'
p1932
(lp1933
g3
asS'listening'
p1934
(lp1935
g3
asS'Crafts'
p1936
(lp1937
g3
asS'amp'
p1938
(lp1939
g3
asS'Talk'
p1940
(lp1941
g14
asS'furniture'
p1942
(lp1943
g3
asS'Shop'
p1944
(lp1945
g3
asS'Show'
p1946
(lp1947
g3
asS'/amazon'
p1948
(lp1949
g3
asS'Streaming'
p1950
(lp1951
g3
asS'benefit'
p1952
(lp1953
g14
asS'Something'
p1954
(lp1955
g263
asS'\\n'
p1956
(lp1957
g3
asS'passionate'
p1958
(lp1959
g14
asS'Homefront'
p1960
(lp1961
g14
asS'193870011'
p1962
(lp1963
g3
asS'Handbags'
p1964
(lp1965
g3
asS'Entertainment'
p1966
(lp1967
g3
asS'+new'
p1968
(lp1969
g3
asS'/gp/product/B01N3JQ196'
p1970
(lp1971
g3
asS'Controls'
p1972
(lp1973
g3
asS'Printers'
p1974
(lp1975
g3
asS'Employee'
p1976
(lp1977
g14
asS'New'
p1978
(lp1979
g3
asS'/yourmembershipsandsubscriptions'
p1980
(lp1981
g3
asS'Men'
p1982
(lp1983
g3
asS'assembly'
p1984
(lp1985
g3
asS'CreateSpace'
p1986
(lp1987
g3
asS'business'
p1988
(lp1989
g3
asS'broken'
p1990
(lp1991
g14
asS'Outdoors'
p1992
(lp1993
g3
asS'/Handmade/b'
p1994
(lp1995
g3
asS'on'
p1996
(lp1997
g14
ag3
asS'ol'
p1998
(lp1999
g3
asS'Inspire'
p2000
(lp2001
g3
asS'origins'
p2002
(lp2003
g3
asS'of'
p2004
(lp2005
g14
ag3
asS'Get'
p2006
(lp2007
g3
asS'Trade'
p2008
(lp2009
g3
asS'or'
p2010
(lp2011
g3
asS'store/b'
p2012
(lp2013
g3
asS'3248684011'
p2014
(lp2015
g3
asS'Ads'
p2016
(lp2017
g3
asS'inclusion'
p2018
(lp2019
g14
asS'instruments'
p2020
(lp2021
g3
asS'11525224011'
p2022
(lp2023
g3
asS'Add'
p2024
(lp2025
g3
asS'Luxury'
p2026
(lp2027
g3
asS'Winter'
p2028
(lp2029
g3
asS'your'
p2030
(lp2031
g14
ag3
asS'Store'
p2032
(lp2033
g3
asS'Built'
p2034
(lp2035
g14
asS'her'
p2036
(lp2037
g14
asS'Phone'
p2038
(lp2039
g3
asS'there'
p2040
(lp2041
g14
asS'start'
p2042
(lp2043
g14
asS'cats'
p2044
(lp2045
g3
asS'lot'
p2046
(lp2047
g14
asS'16283289011'
p2048
(lp2049
g3
asS'Sabrina'
p2050
(lp2051
g14
asS'complete'
p2052
(lp2053
g14
asS'kittens'
p2054
(lp2055
g3
asS'1292115011'
p2056
(lp2057
g3
asS'#160'
p2058
(lp2059
g3
asS'706814011'
p2060
(lp2061
g3
asS'bookstore'
p2062
(lp2063
g14
asS'Pinzon'
p2064
(lp2065
g3
asS'with'
p2066
(lp2067
g14
ag3
asS'Guide'
p2068
(lp2069
g14
asS'hire'
p2070
(lp2071
g14
asS'strollers'
p2072
(lp2073
g3
asS'dvd'
p2074
(lp2075
g3
asS'13727921011'
p2076
(lp2077
g3
asS'Special'
p2078
(lp2079
g3
asS'Delivered'
p2080
(lp2081
g3
asS'ad'
p2082
(lp2083
g3
asS'Eligible'
p2084
(lp2085
g3
asS"'Subnav'"
p2086
(lp2087
g3
asS'an'
p2088
(lp2089
g14
ag3
asS'Blog'
p2090
(lp2091
g14
asS'How'
p2092
(lp2093
g14
ag3
asS'as'
p2094
(lp2095
g14
ag3
asS'Consultation'
p2096
(lp2097
g3
asS"'PlatinumSubnav'"
p2098
(lp2099
g3
asS'/gp/product/B073SF78XM'
p2100
(lp2101
g3
asS'Veterans'
p2102
(lp2103
g14
asS'OFFER_FILTER%3DSUBSCRIPTIONS'
p2104
(lp2105
g3
asS'again'
p2106
(lp2107
g14
ag3
asS'subtext'
p2108
(lp2109
g3
asS'Shorts'
p2110
(lp2111
g3
asS'Read'
p2112
(lp2113
g14
asS'/gp/dmusic/promotions/PrimeMusic'
p2114
(lp2115
g3
asS'storage'
p2116
(lp2117
g3
asS'Lab'
p2118
(lp2119
g3
asS'graduate'
p2120
(lp2121
g14
asS'Helping'
p2122
(lp2123
g14
asS'2001'
p2124
(lp2125
g14
asS'you'
p2126
(lp2127
g14
ag3
asS'Ross'
p2128
(lp2129
g14
asS'Niver'
p2130
(lp2131
g14
asS'Great'
p2132
(lp2133
g14
asS'Alex'
p2134
(lp2135
g14
asS'Landefeld'
p2136
(lp2137
g14
asS'Fields'
p2138
(lp2139
g14
asS'Employees'
p2140
(lp2141
g14
asS'3400371'
p2142
(lp2143
g3
asS'Reload'
p2144
(lp2145
g3
asS'Rentals'
p2146
(lp2147
g3
asS'spouse'
p2148
(lp2149
g14
asS'14717647011'
p2150
(lp2151
g3
asS'STARZ'
p2152
(lp2153
g3
asS'12034492011'
p2154
(lp2155
g3
asS'shipping'
p2156
(lp2157
g3
asS'remote'
p2158
(lp2159
g3
asS'Credit'
p2160
(lp2161
g3
asS'controlled'
p2162
(lp2163
g3
asS'invest'
p2164
(lp2165
g14
asS'/Video'
p2166
(lp2167
g3
asS'Direct'
p2168
(lp2169
g3
asS'Pantry'
p2170
(lp2171
g3
asS'Hardware'
p2172
(lp2173
g3
asS'Magazines'
p2174
(lp2175
g3
asS'13896617011'
p2176
(lp2177
g3
asS'starting'
p2178
(lp2179
g14
asS'Canada'
p2180
(lp2181
g14
asS'all'
p2182
(lp2183
g14
ag3
asS'Launchpad'
p2184
(lp2185
g3
asS'commute'
p2186
(lp2187
g14
asS'Ceiling'
p2188
(lp2189
g3
asS'/Memory'
p2190
(lp2191
g3
asS'tv'
p2192
(lp2193
g3
asS'opportunities'
p2194
(lp2195
g14
asS'to'
p2196
(lp2197
g14
ag3
asS'program'
p2198
(lp2199
g14
asS'Fitness/b'
p2200
(lp2201
g3
asS'smile'
p2202
(lp2203
g14
asS'1080p'
p2204
(lp2205
g3
asS'10208590011'
p2206
(lp2207
g3
asS'Vehicles'
p2208
(lp2209
g3
asS'/Exercise'
p2210
(lp2211
g3
asS'7301146011'
p2212
(lp2213
g3
asS'706808011'
p2214
(lp2215
g3
asS'difference'
p2216
(lp2217
g14
asS'exclusives'
p2218
(lp2219
g3
asS'7147443011'
p2220
(lp2221
g3
asS'div#navSwmHoliday'
p2222
(lp2223
g3
asS'list'
p2224
(lp2225
g3
asS'joined'
p2226
(lp2227
g14
asS't1'
p2228
(lp2229
g3
asS'Motorcycle'
p2230
(lp2231
g3
asS'software/b'
p2232
(lp2233
g3
asS'small'
p2234
(lp2235
g14
asS'/water'
p2236
(lp2237
g3
asS'Impact'
p2238
(lp2239
g14
asS'/cell'
p2240
(lp2241
g3
asS'/Art/b'
p2242
(lp2243
g3
asS'11403472011'
p2244
(lp2245
g3
asS'Interest'
p2246
(lp2247
g3
asS'East'
p2248
(lp2249
g3
asS'/gp/pantry/yourlists'
p2250
(lp2251
g3
asS'1\xe2\x80\x9d'
p2252
(lp2253
g14
asS'what'
p2254
(lp2255
g14
asS'Gaming/b'
p2256
(lp2257
g3
asS'Releases'
p2258
(lp2259
g14
asS'8209716011'
p2260
(lp2261
g3
asS'/industrial'
p2262
(lp2263
g3
asS'compact'
p2264
(lp2265
g3
asS'full'
p2266
(lp2267
g14
ag3
asS'Gift'
p2268
(lp2269
g3
asS'answers'
p2270
(lp2271
g14
asS'hours'
p2272
(lp2273
g3
asS'Contact'
p2274
(lp2275
g3
asS'operating'
p2276
(lp2277
g14
asS'buy'
p2278
(lp2279
g3
asS'Whole'
p2280
(lp2281
g3
asS'tragedy'
p2282
(lp2283
g14
asS'search'
p2284
(lp2285
g3
asS'margin'
p2286
(lp2287
g3
asS'experience'
p2288
(lp2289
g14
ag3
asS'Audiobooks'
p2290
(lp2291
g3
asS'Monitors'
p2292
(lp2293
g3
asS'/sample'
p2294
(lp2295
g3
asS'Placing'
p2296
(lp2297
g3
asS'Sparkling'
p2298
(lp2299
g3
asS'toys'
p2300
(lp2301
g3
asS'manage'
p2302
(lp2303
g3
asS'select'
p2304
(lp2305
g3
asS'/gp/video/library'
p2306
(lp2307
g3
asS'Elements'
p2308
(lp2309
g3
asS'takes'
p2310
(lp2311
g14
asS'Academics'
p2312
(lp2313
g14
asS'two'
p2314
(lp2315
g3
asS'3760911'
p2316
(lp2317
g3
asS'/gp/css/homepage'
p2318
(lp2319
g3
asS'more'
p2320
(lp2321
g14
ag3
asS'knows'
p2322
(lp2323
g14
asS'company'
p2324
(lp2325
g14
asS'faucet'
p2326
(lp2327
g3
asS'Recognized'
p2328
(lp2329
g14
asS'save/manager/viewsubscriptions'
p2330
(lp2331
g3
asS'/gp/digital/fiona/redirect/newsstand/home/'
p2332
(lp2333
g3
asS'3427287011'
p2334
(lp2335
g3
asS'Better'
p2336
(lp2337
g14
asS'none'
p2338
(lp2339
g3
asS'Fans/b'
p2340
(lp2341
g3
asS'Textbook'
p2342
(lp2343
g3
asS'Tiffany'
p2344
(lp2345
g14
asS'People'
p2346
(lp2347
g14
asS'/Printers'
p2348
(lp2349
g3
asS'paragraph'
p2350
(lp2351
g3
asS'/Instant'
p2352
(lp2353
g3
asS'learn'
p2354
(lp2355
g14
ag3
asS'Your'
p2356
(lp2357
g3
asS'Inc'
p2358
(lp2359
g3
asS'_encoding'
p2360
(lp2361
g3
asS'share'
p2362
(lp2363
g14
asS'states'
p2364
(lp2365
g3
asS'rather'
p2366
(lp2367
g14
asS'/workout'
p2368
(lp2369
g3
asS'stayed'
p2370
(lp2371
g14
asS'172282'
p2372
(lp2373
g3
asS'/Kids'
p2374
(lp2375
g3
asS'/Golf/b'
p2376
(lp2377
g3
asS'/Vitamins'
p2378
(lp2379
g3
asS'plans'
p2380
(lp2381
g3
asS'Audiobook'
p2382
(lp2383
g3
asS'a0032'
p2384
(lp2385
g3
asS'/Car'
p2386
(lp2387
g3
asS'Dot'
p2388
(lp2389
g3
asS'/Vehicle'
p2390
(lp2391
g3
asS'a'
p2392
(lp2393
g14
ag3
asS'10232440011'
p2394
(lp2395
g3
asS'Mexico'
p2396
(lp2397
g14
asS'Player'
p2398
(lp2399
g3
asS'responsibility'
p2400
(lp2401
g14
asS'/localservices/ya/servicerequests'
p2402
(lp2403
g3
asS'media'
p2404
(lp2405
g3
asS'Armed'
p2406
(lp2407
g14
asS'Film'
p2408
(lp2409
g3
asS'Powersports'
p2410
(lp2411
g3
asS'What'
p2412
(lp2413
g14
asS'/rent'
p2414
(lp2415
g3
asS'help'
p2416
(lp2417
g14
ag3
asS"don't"
p2418
(lp2419
g14
asS'Interesting'
p2420
(lp2421
g3
asS'Birthdays'
p2422
(lp2423
g3
asS'Countdown'
p2424
(lp2425
g3
asS'through'
p2426
(lp2427
g14
asS'Forces'
p2428
(lp2429
g14
asS'Supplies'
p2430
(lp2431
g3
asS'its'
p2432
(lp2433
g14
ag3
asS'/dp/B073SQYXTW'
p2434
(lp2435
g3
asS'Full'
p2436
(lp2437
g3
asS'WORKING'
p2438
(lp2439
g14
asS'Parental'
p2440
(lp2441
g3
asS'/Patio'
p2442
(lp2443
g3
asS'Dessert'
p2444
(lp2445
g3
asS'Tomay'
p2446
(lp2447
g14
asS'late'
p2448
(lp2449
g14
asS'Quest'
p2450
(lp2451
g14
asS'soccer'
p2452
(lp2453
g3
asS'AUI_72554'
p2454
(lp2455
g14
asS'motivated'
p2456
(lp2457
g14
asS'food'
p2458
(lp2459
g3
asS'2X'
p2460
(lp2461
g3
asS'12034909011'
p2462
(lp2463
g3
asS'photos/b'
p2464
(lp2465
g3
asS'offers/b'
p2466
(lp2467
g3
asS'256346011'
p2468
(lp2469
g3
asS'Saving'
p2470
(lp2471
g14
asS'/magazines/b'
p2472
(lp2473
g3
asS'found'
p2474
(lp2475
g14
asS'End'
p2476
(lp2477
g3
asS'Fabric'
p2478
(lp2479
g3
asS'generation'
p2480
(lp2481
g3
asS'Canon'
p2482
(lp2483
g3
asS'hard'
p2484
(lp2485
g14
asS'Sports'
p2486
(lp2487
g3
asS'Warehouse'
p2488
(lp2489
g3
asS'Reading'
p2490
(lp2491
g3
asS'really'
p2492
(lp2493
g14
asS'try'
p2494
(lp2495
g14
ag3
asS'health'
p2496
(lp2497
g3
asS'7'
p2498
(lp2499
g3
asS'/mobile'
p2500
(lp2501
g3
asS'EN'
p2502
(lp2503
g3
asS'Hour'
p2504
(lp2505
g3
asS'wishlistContent'
p2506
(lp2507
g3
asS'Allowed'
p2508
(lp2509
g14
asS'Download/b'
p2510
(lp2511
g3
asS'members'
p2512
(lp2513
g14
ag3
asS'ask'
p2514
(lp2515
g3
asS'11051399011'
p2516
(lp2517
g3
asS'owners'
p2518
(lp2519
g3
asS'benefits'
p2520
(lp2521
g3
asS'/dp/B00ZV9RDKK'
p2522
(lp2523
g3
asS'computers'
p2524
(lp2525
g3
asS'/Wickedly'
p2526
(lp2527
g3
asS'Dietary'
p2528
(lp2529
g3
asS'IMDbPro'
p2530
(lp2531
g3
asS'/dp/B01I499BNA'
p2532
(lp2533
g3
asS'AUI_UX_59374'
p2534
(lp2535
g14
asS'2402172011'
p2536
(lp2537
g3
asS"'PreNav'"
p2538
(lp2539
g3
asS'hamsters'
p2540
(lp2541
g3
asS'financing'
p2542
(lp2543
g3
asS'Simplify'
p2544
(lp2545
g14
asS'Started'
p2546
(lp2547
g3
asS'2226766011'
p2548
(lp2549
g3
asS'wonderful'
p2550
(lp2551
g14
asS'Regulatory'
p2552
(lp2553
g3
asS'Transparent'
p2554
(lp2555
g3
asS'store'
p2556
(lp2557
g3
asS'selling'
p2558
(lp2559
g3
asS"'TransientFlyout'"
p2560
(lp2561
g3
asS'No'
p2562
(lp2563
g3
asS'Plumbing'
p2564
(lp2565
g3
asS'albums'
p2566
(lp2567
g3
asS'$5'
p2568
(lp2569
g14
asS'kind'
p2570
(lp2571
g14
asS'/Fan'
p2572
(lp2573
g3
asS"'NavBar'"
p2574
(lp2575
g3
asS'283155'
p2576
(lp2577
g3
asS'Toys'
p2578
(lp2579
g3
asS'Cancel'
p2580
(lp2581
g3
asS'kindle'
p2582
(lp2583
g3
asS'toward'
p2584
(lp2585
g14
asS'Movie'
p2586
(lp2587
g3
asS'Beryl'
p2588
(lp2589
g14
asS'orders'
p2590
(lp2591
g3
asS'/dp/B01J6RPGKG'
p2592
(lp2593
g3
asS'thought'
p2594
(lp2595
g14
asS'16310101'
p2596
(lp2597
g3
asS'Power'
p2598
(lp2599
g3
asS'Food'
p2600
(lp2601
g3
asS'Personalize'
p2602
(lp2603
g3
asS'subnav'
p2604
(lp2605
g3
asS'Germany'
p2606
(lp2607
g14
asS'build'
p2608
(lp2609
g14
asS'/Kindle'
p2610
(lp2611
g3
asS'With'
p2612
(lp2613
g14
ag3
asS'/music'
p2614
(lp2615
g3
asS'experienced'
p2616
(lp2617
g14
asS'Devices/b'
p2618
(lp2619
g3
asS'hired'
p2620
(lp2621
g14
asS'experiences'
p2622
(lp2623
g14
asS'sports/b'
p2624
(lp2625
g3
asS'services'
p2626
(lp2627
g3
asS'seasons'
p2628
(lp2629
g3
asS'The'
p2630
(lp2631
g14
ag3
asS'Finds'
p2632
(lp2633
g3
asS'alexa/b'
p2634
(lp2635
g3
asS'audio'
p2636
(lp2637
g3
asS'kittens/b'
p2638
(lp2639
g3
asS'/Food'
p2640
(lp2641
g3
asS'Sample'
p2642
(lp2643
g3
asS'DEX_92889'
p2644
(lp2645
g14
asS'clothes/b'
p2646
(lp2647
g3
asS'8588809011'
p2648
(lp2649
g3
asS'Cloud'
p2650
(lp2651
g3
asS'joining'
p2652
(lp2653
g14
asS'Transformations'
p2654
(lp2655
g14
asS'Wiring'
p2656
(lp2657
g3
asS'Exclusively'
p2658
(lp2659
g3
asS'nav_t_after_inline_CSS'
p2660
(lp2661
g3
asS'find'
p2662
(lp2663
g14
ag3
asS'Kingdom'
p2664
(lp2665
g14
asS'access'
p2666
(lp2667
g3
asS'Withoutabox'
p2668
(lp2669
g3
asS'Internship'
p2670
(lp2671
g14
asS'Gym'
p2672
(lp2673
g3
asS'Makeup'
p2674
(lp2675
g3
asS'ntilde'
p2676
(lp2677
g3
asS'Sellers'
p2678
(lp2679
g3
asS'2056775011'
p2680
(lp2681
g3
asS'/soccer'
p2682
(lp2683
g3
asS'8'
p2684
(lp2685
g3
asS'Prime'
p2686
(lp2687
g3
asS'his'
p2688
(lp2689
g14
asS'Repair'
p2690
(lp2691
g3
asS'grocery'
p2692
(lp2693
g3
asS'/Girls'
p2694
(lp2695
g3
asS'Crystal'
p2696
(lp2697
g14
asS'AMAZON'
p2698
(lp2699
g14
asS'Recommendations'
p2700
(lp2701
g3
asS'Hearts'
p2702
(lp2703
g3
asS'/design'
p2704
(lp2705
g3
asS'Help'
p2706
(lp2707
g3
asS'Bluetooth'
p2708
(lp2709
g3
asS'restaurants'
p2710
(lp2711
g3
asS'parts/b'
p2712
(lp2713
g3
asS'set'
p2714
(lp2715
g3
asS'art'
p2716
(lp2717
g3
asS'For'
p2718
(lp2719
g3
asS'/Home'
p2720
(lp2721
g3
asS'Create'
p2722
(lp2723
g3
asS'France'
p2724
(lp2725
g14
asS'are'
p2726
(lp2727
g14
asS'Elements/b'
p2728
(lp2729
g3
asS'currently'
p2730
(lp2731
g14
asS'please'
p2732
(lp2733
g3
asS'/Camera'
p2734
(lp2735
g3
asS'Terry'
p2736
(lp2737
g14
asS'available'
p2738
(lp2739
g14
ag3
asS'Be'
p2740
(lp2741
g14
asS'outdoors'
p2742
(lp2743
g3
asS'10971181011'
p2744
(lp2745
g3
asS'Dane'
p2746
(lp2747
g3
asS'Makes'
p2748
(lp2749
g14
asS'both'
p2750
(lp2751
g14
asS'Exclusives'
p2752
(lp2753
g3
asS'3760901'
p2754
(lp2755
g3
asS'6563140011'
p2756
(lp2757
g3
asS'/Furniture'
p2758
(lp2759
g3
asS'AutomotiveIndustrialPanel'
p2760
(lp2761
g3
asS'Happiness'
p2762
(lp2763
g3
asS'DPReview'
p2764
(lp2765
g3
asS'reasons'
p2766
(lp2767
g14
asS'community'
p2768
(lp2769
g14
asS'Leisure'
p2770
(lp2771
g3
asS'Online'
p2772
(lp2773
g3
asS'Distribution'
p2774
(lp2775
g3
asS'pr'
p2776
(lp2777
g3
asS'Play'
p2778
(lp2779
g3
asS'My'
p2780
(lp2781
g3
asS'px'
p2782
(lp2783
g3
asS'Cart'
p2784
(lp2785
g3
asS'DigitalMusicPanel'
p2786
(lp2787
g3
asS'Card'
p2788
(lp2789
g3
asS'Women'
p2790
(lp2791
g3
asS'collectible'
p2792
(lp2793
g3
asS'1077068'
p2794
(lp2795
g3
asS'fire'
p2796
(lp2797
g3
asS'fund'
p2798
(lp2799
g3
asS'Switch'
p2800
(lp2801
g3
asS'races'
p2802
(lp2803
g14
asS'sleeves'
p2804
(lp2805
g3
asS'FreeTime'
p2806
(lp2807
g3
asS"She's"
p2808
(lp2809
g14
asS'Software'
p2810
(lp2811
g14
ag3
asS'16218619011'
p2812
(lp2813
g3
asS'look'
p2814
(lp2815
g3
asS'Sales'
p2816
(lp2817
g3
asS'Expertise'
p2818
(lp2819
g14
asS'Change'
p2820
(lp2821
g14
ag3
asS'error'
p2822
(lp2823
g3
asS'Marketplace'
p2824
(lp2825
g3
asS'Downloads/b'
p2826
(lp2827
g3
asS'Market'
p2828
(lp2829
g3
asS'8\xe2\x80\x9d'
p2830
(lp2831
g3
asS'Italy'
p2832
(lp2833
g14
ag3
asS'/Kitchen'
p2834
(lp2835
g3
asS"'best"
p2836
(lp2837
g14
asS'5088769011'
p2838
(lp2839
g3
asS'Tim'
p2840
(lp2841
g14
asS'audiobooks'
p2842
(lp2843
g3
asS'ready'
p2844
(lp2845
g3
asS'bluray3d/b'
p2846
(lp2847
g3
asS'Associate'
p2848
(lp2849
g14
asS'Sorensen'
p2850
(lp2851
g14
asS'/MP3'
p2852
(lp2853
g3
asS'About'
p2854
(lp2855
g14
ag3
asS'used'
p2856
(lp2857
g3
asS'home/b'
p2858
(lp2859
g3
asS'10192830011'
p2860
(lp2861
g3
asS'Movies'
p2862
(lp2863
g14
ag3
asS'000'
p2864
(lp2865
g14
ag3
asS'built'
p2866
(lp2867
g3
asS'Warmack'
p2868
(lp2869
g14
asS'ComiXology'
p2870
(lp2871
g3
asS'317971011'
p2872
(lp2873
g3
asS'Innovations'
p2874
(lp2875
g14
ag3
asS'edge'
p2876
(lp2877
g14
asS'organization'
p2878
(lp2879
g14
asS'Tools'
p2880
(lp2881
g3
asS'nav_prefetch_yourorders'
p2882
(lp2883
g3
asS'AUI_UX_102912'
p2884
(lp2885
g14
asS'Handmade'
p2886
(lp2887
g3
asS"We're"
p2888
(lp2889
g14
asS'questions'
p2890
(lp2891
g14
ag3
asS'world'
p2892
(lp2893
g14
asS'startups'
p2894
(lp2895
g3
asS'/Electronics'
p2896
(lp2897
g3
asS'loading'
p2898
(lp2899
g3
asS'tablet'
p2900
(lp2901
g3
asS'extra'
p2902
(lp2903
g3
asS'Holidays'
p2904
(lp2905
g14
asS'Lamps'
p2906
(lp2907
g3
asS'Brands'
p2908
(lp2909
g3
asS'/Beauty'
p2910
(lp2911
g3
asS'/gp/feature'
p2912
(lp2913
g3
asS'Spouse'
p2914
(lp2915
g14
asS'excited'
p2916
(lp2917
g14
asS'customers'
p2918
(lp2919
g14
ag3
asS'dividerBefore'
p2920
(lp2921
g3
asS'Did'
p2922
(lp2923
g14
asS'big'
p2924
(lp2925
g14
asS'11435470011'
p2926
(lp2927
g3
asS'AUI_ACCESSIBILITY_49860'
p2928
(lp2929
g14
asS'GNO_CCL'
p2930
(lp2931
g3
asS'quest'
p2932
(lp2933
g14
asS'Requests'
p2934
(lp2935
g3
asS'projects'
p2936
(lp2937
g14
asS'Alexandria'
p2938
(lp2939
g14
asS'success'
p2940
(lp2941
g14
asS'10192825011'
p2942
(lp2943
g3
asS'/gp/kindle/ku/ku_central'
p2944
(lp2945
g3
asS'Hiring'
p2946
(lp2947
g14
asS'Fine'
p2948
(lp2949
g3
asS'Find'
p2950
(lp2951
g3
asS'some'
p2952
(lp2953
g14
asS'Recreation'
p2954
(lp2955
g3
asS'streaming'
p2956
(lp2957
g3
asS'5657188011'
p2958
(lp2959
g3
asS'jewelry'
p2960
(lp2961
g3
asS'Pittsburgh'
p2962
(lp2963
g14
asS'tools'
p2964
(lp2965
g3
asS'pros'
p2966
(lp2967
g3
asS'Scalable'
p2968
(lp2969
g3
asS'1250'
p2970
(lp2971
g14
ag3
asS'innovation'
p2972
(lp2973
g14
asS'Fulfillment'
p2974
(lp2975
g14
asS'Box'
p2976
(lp2977
g3
asS'be'
p2978
(lp2979
g14
asS'run'
p2980
(lp2981
g14
asS'Models/b'
p2982
(lp2983
g3
asS'Bill'
p2984
(lp2985
g14
asS'Times'
p2986
(lp2987
g3
asS"worlds'"
p2988
(lp2989
g14
asS'Policies'
p2990
(lp2991
g3
asS'Hello'
p2992
(lp2993
g3
asS'/toys/b'
p2994
(lp2995
g3
asS'6054382011'
p2996
(lp2997
g3
asS'catnip'
p2998
(lp2999
g3
asS'/stream/saves/items'
p3000
(lp3001
g3
asS'repair'
p3002
(lp3003
g3
asS'AUI_ATTR_VALIDATIONS_1_51371'
p3004
(lp3005
g14
asS'hometown'
p3006
(lp3007
g14
asS'GPS'
p3008
(lp3009
g3
asS"Spouse's"
p3010
(lp3011
g14
asS'Cards/b'
p3012
(lp3013
g3
asS'Everything'
p3014
(lp3015
g3
asS'/services'
p3016
(lp3017
g3
asS'ACX'
p3018
(lp3019
g3
asS'Jewelry'
p3020
(lp3021
g3
asS'Used'
p3022
(lp3023
g3
asS'/alexa'
p3024
(lp3025
g3
asS'Army'
p3026
(lp3027
g14
asS'filterId'
p3028
(lp3029
g3
asS'Lists'
p3030
(lp3031
g3
asS"Where's"
p3032
(lp3033
g3
asS'_blank\\'
p3034
(lp3035
g3
asS'Every'
p3036
(lp3037
g3
asS'Alexa'
p3038
(lp3039
g3
asS'Schoettler'
p3040
(lp3041
g14
asS'Fixtures/b'
p3042
(lp3043
g3
asS'registered'
p3044
(lp3045
g14
asS'Wedding'
p3046
(lp3047
g3
asS'Deals'
p3048
(lp3049
g3
asS'/Appliances/b'
p3050
(lp3051
g3
asS'\xe2\x80\x9cDay'
p3052
(lp3053
g14
asS'merchId'
p3054
(lp3055
g3
asS'1055398'
p3056
(lp3057
g3
asS'Office'
p3058
(lp3059
g3
asS'/Luggage'
p3060
(lp3061
g3
asS'up'
p3062
(lp3063
g14
ag3
asS'us'
p3064
(lp3065
g14
asS'Books'
p3066
(lp3067
g14
ag3
asS'1063306'
p3068
(lp3069
g3
asS'FireTvPanel'
p3070
(lp3071
g3
asS'15706941'
p3072
(lp3073
g3
asS'Outside'
p3074
(lp3075
g14
asS'associates'
p3076
(lp3077
g14
asS'Subscribe'
p3078
(lp3079
g3
asS'TV'
p3080
(lp3081
g3
asS'started'
p3082
(lp3083
g14
ag3
asS'nav'
p3084
(lp3085
g3
asS'Student'
p3086
(lp3087
g14
ag3
asS'department'
p3088
(lp3089
g3
asS'Rises'
p3090
(lp3091
g14
asS'95%'
p3092
(lp3093
g14
asS'Coupons'
p3094
(lp3095
g3
asS'/dp/B01J90MSDS'
p3096
(lp3097
g3
asS'Customer'
p3098
(lp3099
g14
ag3
asS'Skills'
p3100
(lp3101
g3
asS'Cash'
p3102
(lp3103
g3
asS'Cast'
p3104
(lp3105
g14
asS'Carrier'
p3106
(lp3107
g3
asS'AT'
p3108
(lp3109
g14
asS'Audio'
p3110
(lp3111
g3
asS'land'
p3112
(lp3113
g14
asS"'PostNav'"
p3114
(lp3115
g3
asS'Espa'
p3116
(lp3117
g3
asS'vehicles'
p3118
(lp3119
g3
asS'318135011'
p3120
(lp3121
g3
asS'departments'
p3122
(lp3123
g3
asS'An'
p3124
(lp3125
g3
asS'As'
p3126
(lp3127
g14
asS'13234696011'
p3128
(lp3129
g3
asS"she's"
p3130
(lp3131
g14
asS'3250697011'
p3132
(lp3133
g3
asS'nav_t_begin_nav'
p3134
(lp3135
g3
asS'Sell'
p3136
(lp3137
g3
asS'Based'
p3138
(lp3139
g3
asS'Showcase'
p3140
(lp3141
g3
asS'Self'
p3142
(lp3143
g3
asS'Coins'
p3144
(lp3145
g3
asS'2625373011'
p3146
(lp3147
g3
asS'go'
p3148
(lp3149
g3
asS'centers'
p3150
(lp3151
g14
asS'/grocery'
p3152
(lp3153
g3
asS'2972638011'
p3154
(lp3155
g3
asS'Notice'
p3156
(lp3157
g3
asS'Designer'
p3158
(lp3159
g3
asS'Business'
p3160
(lp3161
g3
asS'speakerphone'
p3162
(lp3163
g3
asS'Step'
p3164
(lp3165
g3
asS'Registry'
p3166
(lp3167
g3
asS'Not'
p3168
(lp3169
g3
asS'Now'
p3170
(lp3171
g3
asS'garden'
p3172
(lp3173
g3
asS'Whispercast'
p3174
(lp3175
g3
asS'automotive'
p3176
(lp3177
g3
asS'Madan'
p3178
(lp3179
g14
asS'Stuff'
p3180
(lp3181
g3
asS'3403201'
p3182
(lp3183
g3
asS'Wheels'
p3184
(lp3185
g3
asS'entire'
p3186
(lp3187
g3
asS'Hiking'
p3188
(lp3189
g3
asS'465600'
p3190
(lp3191
g3
asS'Related'
p3192
(lp3193
g14
asS'deals'
p3194
(lp3195
g14
ag3
asS'car'
p3196
(lp3197
g3
asS'Spa'
p3198
(lp3199
g3
asS'Seattle'
p3200
(lp3201
g14
asS'Select'
p3202
(lp3203
g3
asS'Blu'
p3204
(lp3205
g3
asS'Fast'
p3206
(lp3207
g3
asS'/Game'
p3208
(lp3209
g3
asS'Equipment'
p3210
(lp3211
g3
asS'Camera'
p3212
(lp3213
g3
asS'video'
p3214
(lp3215
g3
asS'download'
p3216
(lp3217
g3
asS'scientific'
p3218
(lp3219
g3
asS'flagship'
p3220
(lp3221
g14
asS'/pet'
p3222
(lp3223
g3
asS'/smart'
p3224
(lp3225
g3
asS'Visionary'
p3226
(lp3227
g14
asS'Departments'
p3228
(lp3229
g3
asS'Boys'
p3230
(lp3231
g3
asS'Line'
p3232
(lp3233
g3
asS'Former'
p3234
(lp3235
g14
asS'/restaurants'
p3236
(lp3237
g3
asS'Light'
p3238
(lp3239
g3
asS'commercial'
p3240
(lp3241
g14
asS'Up'
p3242
(lp3243
g14
ag3
asS'16067214011'
p3244
(lp3245
g3
asS'talent'
p3246
(lp3247
g14
asS'Stream'
p3248
(lp3249
g3
asS'32'
p3250
(lp3251
g3
asS'Fostering'
p3252
(lp3253
g14
asS'30'
p3254
(lp3255
g14
asS'Back'
p3256
(lp3257
g14
ag3
asS'Jennifer'
p3258
(lp3259
g14
asS'products'
p3260
(lp3261
g3
asS'bookstores'
p3262
(lp3263
g14
asS'Download'
p3264
(lp3265
g3
asS'originals1'
p3266
(lp3267
g3
asS'Leading'
p3268
(lp3269
g14
asS'Signature'
p3270
(lp3271
g3
asS'Trademark'
p3272
(lp3273
g3
asS'172456'
p3274
(lp3275
g3
asS'Safety'
p3276
(lp3277
g3
asS'Answer'
p3278
(lp3279
g14
asS'Conditions'
p3280
(lp3281
g14
ag3
asS'skates/b'
p3282
(lp3283
g3
asS'Status'
p3284
(lp3285
g3
asS'from'
p3286
(lp3287
g14
ag3
asS'stream'
p3288
(lp3289
g3
asS'remains'
p3290
(lp3291
g14
asS'Drives'
p3292
(lp3293
g3
asS'/Baby'
p3294
(lp3295
g3
asS'next'
p3296
(lp3297
g3
asS'Membership'
p3298
(lp3299
g3
asS'camera'
p3300
(lp3301
g3
asS'Media'
p3302
(lp3303
g14
asS'Career'
p3304
(lp3305
g14
asS'Flanders'
p3306
(lp3307
g14
asS'baby'
p3308
(lp3309
g3
asS'Ultra'
p3310
(lp3311
g3
asS'women'
p3312
(lp3313
g14
asS'customer'
p3314
(lp3315
g3
asS'account'
p3316
(lp3317
g3
asS'this'
p3318
(lp3319
g14
ag3
asS'AudiobookStand'
p3320
(lp3321
g3
asS'Library'
p3322
(lp3323
g3
asS'Cats'
p3324
(lp3325
g3
asS'Video'
p3326
(lp3327
g14
ag3
asS'Fixtures'
p3328
(lp3329
g3
asS'468642'
p3330
(lp3331
g3
asS'fulfillment'
p3332
(lp3333
g14
asS'Camping'
p3334
(lp3335
g3
asS'snacks'
p3336
(lp3337
g3
asS'Launchpad/b'
p3338
(lp3339
g3
asS'11525233011'
p3340
(lp3341
g3
asS'Parts'
p3342
(lp3343
g3
asS'Condon'
p3344
(lp3345
g14
asS'172635'
p3346
(lp3347
g3
asS'Party'
p3348
(lp3349
g3
asS'9013937011'
p3350
(lp3351
g3
asS'Moustafa'
p3352
(lp3353
g14
asS'Delighting'
p3354
(lp3355
g14
asS'Getting'
p3356
(lp3357
g3
asS'8209718011'
p3358
(lp3359
g3
asS'Opportunity'
p3360
(lp3361
g14
asS'Payment'
p3362
(lp3363
g3
asS'667846011'
p3364
(lp3365
g3
asS'/dp/B01J94SWWU'
p3366
(lp3367
g3
asS'fits'
p3368
(lp3369
g14
asS'165796011'
p3370
(lp3371
g3
asS'2975241011'
p3372
(lp3373
g3
asS'Outdoor'
p3374
(lp3375
g3
asS'/Cleaning'
p3376
(lp3377
g3
asS'lines'
p3378
(lp3379
g3
asS'accountListContent'
p3380
(lp3381
g3
asS'Community'
p3382
(lp3383
g14
asS'One'
p3384
(lp3385
g14
asS'flyoutError'
p3386
(lp3387
g3
asS'Tablets'
p3388
(lp3389
g3
asS'Ons'
p3390
(lp3391
g3
asS'2619533011'
p3392
(lp3393
g3
asS'Cycling'
p3394
(lp3395
g3
asS'5174'
p3396
(lp3397
g3
asS'12693418011'
p3398
(lp3399
g3
asS'Scooters'
p3400
(lp3401
g3
asS'Scientific'
p3402
(lp3403
g3
asS'Orvidas'
p3404
(lp3405
g14
asS'Director'
p3406
(lp3407
g14
asS'/gp/family/signup'
p3408
(lp3409
g3
asS'Inventing'
p3410
(lp3411
g14
asS'2017'
p3412
(lp3413
g14
ag3
asS'holiday'
p3414
(lp3415
g14
asS'More'
p3416
(lp3417
g14
ag3
asS'2012'
p3418
(lp3419
g14
asS'designs'
p3420
(lp3421
g14
asS'10192836011'
p3422
(lp3423
g3
asS'Ashley'
p3424
(lp3425
g14
asS'Car'
p3426
(lp3427
g3
asS'Register'
p3428
(lp3429
g3
asS'CreditPanel'
p3430
(lp3431
g3
asS'cutting'
p3432
(lp3433
g14
asS'iPhone'
p3434
(lp3435
g3
asS'Loves'
p3436
(lp3437
g14
asS'/PC'
p3438
(lp3439
g3
asS'/Shopbop'
p3440
(lp3441
g3
asS'Robin'
p3442
(lp3443
g14
asS'Pre'
p3444
(lp3445
g14
asS'Friends'
p3446
(lp3447
g3
asS'university'
p3448
(lp3449
g14
asS'Accessories'
p3450
(lp3451
g3
asS'/Womens'
p3452
(lp3453
g3
asS'11443874011'
p3454
(lp3455
g3
asS'Gary'
p3456
(lp3457
g14
asS'/East'
p3458
(lp3459
g3
asS'Previous'
p3460
(lp3461
g3
asS'Arts'
p3462
(lp3463
g3
asS'From'
p3464
(lp3465
g14
asS'Network'
p3466
(lp3467
g14
asS'globe'
p3468
(lp3469
g14
asS'Treasure'
p3470
(lp3471
g14
asS'700'
p3472
(lp3473
g14
asS'books'
p3474
(lp3475
g3
asS'Print'
p3476
(lp3477
g3
asS'our'
p3478
(lp3479
g14
ag3
asS'out'
p3480
(lp3481
g14
asS'Fashion/b'
p3482
(lp3483
g3
asS'/kitchen'
p3484
(lp3485
g3
asS'3407731'
p3486
(lp3487
g3
asS'CEO'
p3488
(lp3489
g14
asS'Thousands'
p3490
(lp3491
g3
asS'Material'
p3492
(lp3493
g3
asS'China'
p3494
(lp3495
g14
asS'Baby'
p3496
(lp3497
g3
asS'electronics'
p3498
(lp3499
g3
asS'/dp/B0186JAEWK'
p3500
(lp3501
g3
asS'This'
p3502
(lp3503
g14
asS'Verification'
p3504
(lp3505
g3
asS'10192838011'
p3506
(lp3507
g3
asS'Meet'
p3508
(lp3509
g14
ag3
asS'Spend'
p3510
(lp3511
g3
asS'495224'
p3512
(lp3513
g3
asS'Topics'
p3514
(lp3515
g3
asS'times'
p3516
(lp3517
g3
asS'columnBreak'
p3518
(lp3519
g3
asS'Currency'
p3520
(lp3521
g3
asS'11444071011'
p3522
(lp3523
g3
asS'3410851'
p3524
(lp3525
g3
asS'7\\n'
p3526
(lp3527
g3
asS'Managing'
p3528
(lp3529
g3
asS'Pros'
p3530
(lp3531
g3
asS'echo'
p3532
(lp3533
g3
asS'Udit'
p3534
(lp3535
g14
asS'Program'
p3536
(lp3537
g14
asS'Electrical'
p3538
(lp3539
g3
asS'/dp/B01C4UY0JK'
p3540
(lp3541
g3
asS'quality'
p3542
(lp3543
g3
asS'Careers'
p3544
(lp3545
g14
ag3
asS'Pioneering'
p3546
(lp3547
g14
asS'hiking/b'
p3548
(lp3549
g3
asS'Powers'
p3550
(lp3551
g14
asS'nodeId'
p3552
(lp3553
g3
asS'Car/Vehicle'
p3554
(lp3555
g3
asS'their'
p3556
(lp3557
g14
asS'Birthday'
p3558
(lp3559
g3
asS'Lydia'
p3560
(lp3561
g14
asS'/electronics'
p3562
(lp3563
g3
asS'Restrictions'
p3564
(lp3565
g3
asS'docId'
p3566
(lp3567
g3
asS'/wedding/home'
p3568
(lp3569
g3
asS'notificationsList'
p3570
(lp3571
g3
asS'wishlist'
p3572
(lp3573
g3
asS'3561432011'
p3574
(lp3575
g3
asS'Edition'
p3576
(lp3577
g3
asS'Connect'
p3578
(lp3579
g3
asS'loves'
p3580
(lp3581
g14
asS'370783011'
p3582
(lp3583
g3
asS'Information'
p3584
(lp3585
g3
asS'triggerElementID'
p3586
(lp3587
g3
asS'Pay'
p3588
(lp3589
g3
asS'3764441'
p3590
(lp3591
g3
asS'Textbooks/b'
p3592
(lp3593
g3
asS'Other'
p3594
(lp3595
g3
asS'2676882011'
p3596
(lp3597
g3
asS'have'
p3598
(lp3599
g14
asS'border'
p3600
(lp3601
g3
asS'Activities'
p3602
(lp3603
g3
asS'Series'
p3604
(lp3605
g3
asS'After'
p3606
(lp3607
g14
asS'3754161'
p3608
(lp3609
g3
asS'Photos'
p3610
(lp3611
g3
asS'Focused'
p3612
(lp3613
g14
asS'truck'
p3614
(lp3615
g3
asS'toughest'
p3616
(lp3617
g14
asS'Exemption'
p3618
(lp3619
g3
asS'who'
p3620
(lp3621
g14
asS'Joined'
p3622
(lp3623
g14
asS'Games'
p3624
(lp3625
g14
ag3
asS'AndroidPanel'
p3626
(lp3627
g3
asS'/gp/BIT'
p3628
(lp3629
g3
asS'sa'
p3630
(lp3631
g3
asS'Actionable'
p3632
(lp3633
g3
asS'url'
p3634
(lp3635
g3
asS'Instruments'
p3636
(lp3637
g3
asS'1266766011'
p3638
(lp3639
g3
asS'wounded'
p3640
(lp3641
g14
asS'discoveryPanelList'
p3642
(lp3643
g3
asS'/Lab'
p3644
(lp3645
g3
asS'Matt'
p3646
(lp3647
g14
asS'selection'
p3648
(lp3649
g3
asS'/gp/cobrandcard/marketing'
p3650
(lp3651
g3
asS'text'
p3652
(lp3653
g3
asS'Tara'
p3654
(lp3655
g14
asS'bring'
p3656
(lp3657
g14
asS'6669703011'
p3658
(lp3659
g3
asS'underappreciated'
p3660
(lp3661
g14
asS'Public'
p3662
(lp3663
g14
asS'Math'
p3664
(lp3665
g3
asS'/gp/product/B01DCC4LQQ'
p3666
(lp3667
g3
asS'Original'
p3668
(lp3669
g3
asS'employee'
p3670
(lp3671
g14
asS'thousands'
p3672
(lp3673
g14
asS'hope'
p3674
(lp3675
g14
asS'KindleAmazonEchoPanel'
p3676
(lp3677
g3
asS'Amazonians'
p3678
(lp3679
g14
asS'SHOWTIME'
p3680
(lp3681
g3
asS'made'
p3682
(lp3683
g14
asS'bluray'
p3684
(lp3685
g3
asS'Popular'
p3686
(lp3687
g3
asS'Fishing'
p3688
(lp3689
g3
asS'thrives'
p3690
(lp3691
g14
asS'Once'
p3692
(lp3693
g14
asS'processes'
p3694
(lp3695
g14
asS'Matthias'
p3696
(lp3697
g14
asS'h'
p3698
(lp3699
g14
ag3
asS'Sony/b'
p3700
(lp3701
g3
asS'teams'
p3702
(lp3703
g14
asS'Channels'
p3704
(lp3705
g3
asS'she'
p3706
(lp3707
g14
asS'discoveryPanelSummary'
p3708
(lp3709
g3
asS'Guarantee'
p3710
(lp3711
g3
asS'we'
p3712
(lp3713
g14
ag3
asS'Passion'
p3714
(lp3715
g14
asS'/automotive'
p3716
(lp3717
g3
asS'Interns'
p3718
(lp3719
g14
asS'PC'
p3720
(lp3721
g3
asS'tens'
p3722
(lp3723
g14
ag3
asS'July'
p3724
(lp3725
g14
asS'Kitchen'
p3726
(lp3727
g3
asS'Books/b'
p3728
(lp3729
g3
asS'deliver'
p3730
(lp3731
g14
asS'job'
p3732
(lp3733
g14
asS'key'
p3734
(lp3735
g3
asS'AUI_UX_60000'
p3736
(lp3737
g14
asS'471306'
p3738
(lp3739
g3
asS'instant'
p3740
(lp3741
g3
asS'/books'
p3742
(lp3743
g3
asS'career'
p3744
(lp3745
g14
asS'/s/browse'
p3746
(lp3747
g3
asS'display'
p3748
(lp3749
g3
asS'Campus'
p3750
(lp3751
g14
asS'Her'
p3752
(lp3753
g14
asS'/dp/B01N32NCPM'
p3754
(lp3755
g3
asS'walk'
p3756
(lp3757
g14
asS'Music'
p3758
(lp3759
g14
ag3
asS'15706571'
p3760
(lp3761
g3
asS'Leaky'
p3762
(lp3763
g3
asS'undergraduate'
p3764
(lp3765
g14
asS'Smart'
p3766
(lp3767
g3
asS'quit'
p3768
(lp3769
g14
asS'Rewards'
p3770
(lp3771
g3
asS'powered'
p3772
(lp3773
g14
asS"it's"
p3774
(lp3775
g14
asS'Discount'
p3776
(lp3777
g3
asS'/Made'
p3778
(lp3779
g3
asS'/gp/wedding/homepage'
p3780
(lp3781
g3
asS'waste'
p3782
(lp3783
g14
asS'diversity'
p3784
(lp3785
g14
asS'Center'
p3786
(lp3787
g14
asS'FREE'
p3788
(lp3789
g3
asS'Courses'
p3790
(lp3791
g14
ag3
asS'CDs'
p3792
(lp3793
g3
asS'Professional'
p3794
(lp3795
g3
asS'present'
p3796
(lp3797
g14
asS'signInHtml'
p3798
(lp3799
g3
asS'And'
p3800
(lp3801
g3
asS'Ana'
p3802
(lp3803
g14
asS'Jillian'
p3804
(lp3805
g14
asS'7147442011'
p3806
(lp3807
g3
asS'328182011'
p3808
(lp3809
g3
asS'/outdoor'
p3810
(lp3811
g3
asS'value'
p3812
(lp3813
g14
asS'choices'
p3814
(lp3815
g14
asS'Tires'
p3816
(lp3817
g3
asS'Pricing'
p3818
(lp3819
g3
asS'/Reload'
p3820
(lp3821
g3
asS'at'
p3822
(lp3823
g14
ag3
asS'Wickedly'
p3824
(lp3825
g3
asS'Family/b'
p3826
(lp3827
g3
asS'hardware'
p3828
(lp3829
g3
asS"'UpNav'"
p3830
(lp3831
g3
asS'/computer'
p3832
(lp3833
g3
asS'You'
p3834
(lp3835
g14
ag3
asS'Loving'
p3836
(lp3837
g14
asS'recording/b'
p3838
(lp3839
g3
asS'Return'
p3840
(lp3841
g14
ag3
asS'Garden'
p3842
(lp3843
g3
asS'ref_'
p3844
(lp3845
g3
asS'706809011'
p3846
(lp3847
g3
asS'BooksPanel'
p3848
(lp3849
g3
asS'/b'
p3850
(lp3851
g3
asS'parts'
p3852
(lp3853
g3
asS'digital'
p3854
(lp3855
g3
asS'auto'
p3856
(lp3857
g3
asS'android'
p3858
(lp3859
g3
asS'8521791011'
p3860
(lp3861
g3
asS'2350149011'
p3862
(lp3863
g3
asS'16775794011'
p3864
(lp3865
g3
asS'Handling'
p3866
(lp3867
g3
asS"'SWM'"
p3868
(lp3869
g3
asS'Third'
p3870
(lp3871
g3
asS'Luggage'
p3872
(lp3873
g3
asS'promo'
p3874
(lp3875
g3
asS'/Electrical'
p3876
(lp3877
g3
asS'student'
p3878
(lp3879
g14
asS'Order'
p3880
(lp3881
g3
asS'expand'
p3882
(lp3883
g14
asS'off'
p3884
(lp3885
g3
asS'center'
p3886
(lp3887
g14
asS'records'
p3888
(lp3889
g3
asS'/dp/B01J94SBEY'
p3890
(lp3891
g3
asS'Supplements'
p3892
(lp3893
g3
asS'up/ui/rw/about'
p3894
(lp3895
g3
asS'finds'
p3896
(lp3897
g14
asS'States'
p3898
(lp3899
g3
asS'Need'
p3900
(lp3901
g3
asS'ClothingShoesJewelryPanel'
p3902
(lp3903
g3
asS'Electronics/b'
p3904
(lp3905
g3
asS'/Hunting'
p3906
(lp3907
g3
asS'latest'
p3908
(lp3909
g3
asS'Cam'
p3910
(lp3911
g3
asS'less'
p3912
(lp3913
g14
asS'Gourmet'
p3914
(lp3915
g3
asS'Reach'
p3916
(lp3917
g14
asS'hands'
p3918
(lp3919
g3
asS'/gp/video/getstarted'
p3920
(lp3921
g3
asS'317970011'
p3922
(lp3923
g3
asS'40'
p3924
(lp3925
g14
asS'seats'
p3926
(lp3927
g3
asS'Leeper'
p3928
(lp3929
g14
asS'happiness'
p3930
(lp3931
g14
asS'Delivery'
p3932
(lp3933
g3
asS'Company'
p3934
(lp3935
g14
asS'Friday'
p3936
(lp3937
g3
asS'706813011'
p3938
(lp3939
g3
asS'day'
p3940
(lp3941
g14
ag3
asS'979455011'
p3942
(lp3943
g3
asS'battery'
p3944
(lp3945
g3
asS'Fan'
p3946
(lp3947
g3
asS'By'
p3948
(lp3949
g14
asS'smart'
p3950
(lp3951
g14
ag3
asS'7147444011'
p3952
(lp3953
g3
asS'Programs'
p3954
(lp3955
g14
asS'nav_shopall_amzrst_popular_topnav'
p3956
(lp3957
g3
asS'Shipping'
p3958
(lp3959
g3
asS'Offices'
p3960
(lp3961
g14
asS'know'
p3962
(lp3963
g14
asS'Components'
p3964
(lp3965
g3
asS'desk'
p3966
(lp3967
g14
asS'/Furniture/b'
p3968
(lp3969
g3
asS'Systems/b'
p3970
(lp3971
g3
asS'Fashion'
p3972
(lp3973
g3
asS'like'
p3974
(lp3975
g14
asS'lost'
p3976
(lp3977
g14
asS'sizes'
p3978
(lp3979
g3
asS'vibrant'
p3980
(lp3981
g14
asS'/gcx/Gifts'
p3982
(lp3983
g3
asS'garage'
p3984
(lp3985
g14
asS'Foods'
p3986
(lp3987
g3
asS'/Credit'
p3988
(lp3989
g3
asS'become'
p3990
(lp3991
g14
asS'works'
p3992
(lp3993
g14
asS'Replacements'
p3994
(lp3995
g3
asS'classical'
p3996
(lp3997
g3
asS'/dp/B06XDC9RBJ'
p3998
(lp3999
g3
asS'library'
p4000
(lp4001
g3
asS'Installation'
p4002
(lp4003
g3
asS"There's"
p4004
(lp4005
g3
asS'home'
p4006
(lp4007
g3
asS'tmp'
p4008
(lp4009
g3
asS'Vendor'
p4010
(lp4011
g3
asS'/gp/mas/your'
p4012
(lp4013
g3
asS'57042'
p4014
(lp4015
g3
asS'/dp/B075RWFCHB'
p4016
(lp4017
g3
asS'2619525011'
p4018
(lp4019
g3
asS'12034488011'
p4020
(lp4021
g3
asS'Updated'
p4022
(lp4023
g3
asS'Us'
p4024
(lp4025
g3
asS'Range'
p4026
(lp4027
g14
asS'dbs/fd/prime'
p4028
(lp4029
g3
asS'ElectronicsComputersPanel'
p4030
(lp4031
g3
asS'Kindle'
p4032
(lp4033
g3
asS'/Fire'
p4034
(lp4035
g3
asS'about'
p4036
(lp4037
g14
ag3
asS'Generation'
p4038
(lp4039
g14
ag3
asS'mdash'
p4040
(lp4041
g14
asS'US'
p4042
(lp4043
g14
asS'video/b'
p4044
(lp4045
g3
asS'inbox'
p4046
(lp4047
g14
asS'that\xe2\x80\x99s'
p4048
(lp4049
g3
asS'Japan'
p4050
(lp4051
g14
asS'/Automotive'
p4052
(lp4053
g3
asS'software'
p4054
(lp4055
g14
asS'14760453011'
p4056
(lp4057
g3
asS'Speakers'
p4058
(lp4059
g3
asS'own'
p4060
(lp4061
g14
asS'/gp/dmusic/promotions/AmazonMusicUnlimited'
p4062
(lp4063
g3
asS'Two'
p4064
(lp4065
g3
asS'female'
p4066
(lp4067
g14
asS'AUI_UX_92006'
p4068
(lp4069
g14
asS'Bomke'
p4070
(lp4071
g14
asS'Approach'
p4072
(lp4073
g14
asS'Seeger'
p4074
(lp4075
g14
asS'Diversity'
p4076
(lp4077
g14
asS'Assistant'
p4078
(lp4079
g3
asS'apps'
p4080
(lp4081
g3
asS'IMDb'
p4082
(lp4083
g3
asS'Generation/b'
p4084
(lp4085
g3
asS'var'
p4086
(lp4087
g3
asS'Execution'
p4088
(lp4089
g14
asS'Whispersync'
p4090
(lp4091
g3
asS'/Subscribe'
p4092
(lp4093
g3
asS'Sanitation'
p4094
(lp4095
g3
asS'funds'
p4096
(lp4097
g3
asS'/gp/kindle/ku/sign'
p4098
(lp4099
g3
asS'but'
p4100
(lp4101
g14
asS'delivery'
p4102
(lp4103
g3
asS'goals'
p4104
(lp4105
g14
asS'Balance'
p4106
(lp4107
g3
asS'Refund'
p4108
(lp4109
g3
asS'Compare'
p4110
(lp4111
g3
asS'Industrial'
p4112
(lp4113
g3
asS'Golf'
p4114
(lp4115
g3
asS'Tools/b'
p4116
(lp4117
g3
asS'\xc2\xa9'
p4118
(lp4119
g3
asS'MoviesMusicGamesPanel'
p4120
(lp4121
g3
asS'stories'
p4122
(lp4123
g14
ag3
asS'towels/b'
p4124
(lp4125
g3
asS'Accessories/b'
p4126
(lp4127
g3
asS'problem'
p4128
(lp4129
g3
asS'Care'
p4130
(lp4131
g3
asS'Jenna'
p4132
(lp4133
g14
asS'Clothing/b'
p4134
(lp4135
g3
asS'2242532011'
p4136
(lp4137
g3
asS'AbeBooks'
p4138
(lp4139
g3
asS'slowing'
p4140
(lp4141
g14
asS'Discover'
p4142
(lp4143
g14
ag3
asS'7175545011'
p4144
(lp4145
g3
asS'Services/b'
p4146
(lp4147
g3
asS'Electronics'
p4148
(lp4149
g3
asS'education'
p4150
(lp4151
g3
asS'campus'
p4152
(lp4153
g14
asS'Goodreads'
p4154
(lp4155
g3
asS'virtual'
p4156
(lp4157
g14
asS'Wireless'
p4158
(lp4159
g3
asS'Textbooks'
p4160
(lp4161
g3
asS'other'
p4162
(lp4163
g14
asS'Know'
p4164
(lp4165
g3
asS'Tick'
p4166
(lp4167
g14
asS'Like'
p4168
(lp4169
g14
asS'/gp/video/watchlist/'
p4170
(lp4171
g3
asS'chance'
p4172
(lp4173
g14
asS'4K'
p4174
(lp4175
g3
asS"'Tools'"
p4176
(lp4177
g3
asS'Musical'
p4178
(lp4179
g3
asS'/bedding'
p4180
(lp4181
g3
asS'\xe2\x80\x93'
p4182
(lp4183
g14
asS"'"
p4184
(lp4185
g3
asS'Rapids'
p4186
(lp4187
g3
asS'ranks'
p4188
(lp4189
g14
asS'nav_shopall_amzrst_all_topnav'
p4190
(lp4191
g3
asS'In/b'
p4192
(lp4193
g3
asS'Orders'
p4194
(lp4195
g3
as.